
7fc5c039-0542-4ee1-80af-b4eab2f1998d.elf:     file format elf64-littleaarch64
7fc5c039-0542-4ee1-80af-b4eab2f1998d.elf
architecture: aarch64, flags 0x00000150:
HAS_SYMS, DYNAMIC, D_PAGED
start address 0x0000000000006fbc

Program Header:
    LOAD off    0x0000000000001000 vaddr 0x0000000000000000 paddr 0x0000000000000000 align 2**12
         filesz 0x0000000000020af8 memsz 0x0000000000020af8 flags r-x
    LOAD off    0x0000000000022000 vaddr 0x0000000000021000 paddr 0x0000000000021000 align 2**12
         filesz 0x0000000000000944 memsz 0x0000000000a04b58 flags rw-
 DYNAMIC off    0x0000000000022000 vaddr 0x0000000000021000 paddr 0x0000000000021000 align 2**3
         filesz 0x0000000000000110 memsz 0x0000000000000110 flags rw-
   STACK off    0x0000000000000000 vaddr 0x0000000000000000 paddr 0x0000000000000000 align 2**4
         filesz 0x0000000000000000 memsz 0x0000000000000000 flags rw-

Dynamic Section:
  HASH                 0x0000000000020780
  GNU_HASH             0x0000000000020690
  STRTAB               0x0000000000020750
  SYMTAB               0x00000000000206c0
  STRSZ                0x000000000000002e
  SYMENT               0x0000000000000018
  DEBUG                0x0000000000000000
  RELA                 0x00000000000207b0
  RELASZ               0x00000000000007f8
  RELAENT              0x0000000000000018
  FLAGS_1              0x0000000008000000
  RELACOUNT            0x0000000000000023
private flags = 0:

Sections:
Idx Name          Size      VMA               LMA               File off  Algn
  0 .ta_head      00000020  0000000000000000  0000000000000000  00001000  2**3
                  CONTENTS, ALLOC, LOAD, READONLY, DATA
  1 .text         00019aac  0000000000000020  0000000000000020  00001020  2**3
                  CONTENTS, ALLOC, LOAD, READONLY, CODE
  2 .eh_frame     000051ec  0000000000019ad0  0000000000019ad0  0001aad0  2**3
                  CONTENTS, ALLOC, LOAD, READONLY, DATA
  3 .rodata       000019cc  000000000001ecc0  000000000001ecc0  0001fcc0  2**3
                  CONTENTS, ALLOC, LOAD, READONLY, DATA
  4 .gnu.hash     00000030  0000000000020690  0000000000020690  00021690  2**3
                  CONTENTS, ALLOC, LOAD, READONLY, DATA
  5 .dynsym       00000090  00000000000206c0  00000000000206c0  000216c0  2**3
                  CONTENTS, ALLOC, LOAD, READONLY, DATA
  6 .dynstr       0000002e  0000000000020750  0000000000020750  00021750  2**0
                  CONTENTS, ALLOC, LOAD, READONLY, DATA
  7 .hash         0000002c  0000000000020780  0000000000020780  00021780  2**3
                  CONTENTS, ALLOC, LOAD, READONLY, DATA
  8 .rela.dyn     00000348  00000000000207b0  00000000000207b0  000217b0  2**3
                  CONTENTS, ALLOC, LOAD, READONLY, DATA
  9 .dynamic      00000110  0000000000021000  0000000000021000  00022000  2**3
                  CONTENTS, ALLOC, LOAD, DATA
 10 .got          000001b0  0000000000021110  0000000000021110  00022110  2**3
                  CONTENTS, ALLOC, LOAD, DATA
 11 .rela.got     000004b0  00000000000212c0  00000000000212c0  000222c0  2**3
                  CONTENTS, ALLOC, LOAD, READONLY, DATA
 12 .data         000001d4  0000000000021770  0000000000021770  00022770  2**3
                  CONTENTS, ALLOC, LOAD, DATA
 13 .bss          00a04210  0000000000021948  0000000000021948  00022944  2**3
                  ALLOC
 14 .debug_info   0003bdaa  0000000000000000  0000000000000000  00022944  2**0
                  CONTENTS, READONLY, DEBUGGING, OCTETS
 15 .debug_abbrev 00007a4f  0000000000000000  0000000000000000  0005e6ee  2**0
                  CONTENTS, READONLY, DEBUGGING, OCTETS
 16 .debug_loc    00042ba1  0000000000000000  0000000000000000  0006613d  2**0
                  CONTENTS, READONLY, DEBUGGING, OCTETS
 17 .debug_aranges 00000d70  0000000000000000  0000000000000000  000a8ce0  2**4
                  CONTENTS, READONLY, DEBUGGING, OCTETS
 18 .debug_ranges 000030b0  0000000000000000  0000000000000000  000a9a50  2**4
                  CONTENTS, READONLY, DEBUGGING, OCTETS
 19 .debug_macro  00026b07  0000000000000000  0000000000000000  000acb00  2**0
                  CONTENTS, READONLY, DEBUGGING, OCTETS
 20 .debug_line   0001ad8e  0000000000000000  0000000000000000  000d3607  2**0
                  CONTENTS, READONLY, DEBUGGING, OCTETS
 21 .debug_str    0001dc42  0000000000000000  0000000000000000  000ee395  2**0
                  CONTENTS, READONLY, DEBUGGING, OCTETS
 22 .comment      0000002b  0000000000000000  0000000000000000  0010bfd7  2**0
                  CONTENTS, READONLY
SYMBOL TABLE:
0000000000000000 l    d  .ta_head	0000000000000000 .ta_head
0000000000000020 l    d  .text	0000000000000000 .text
0000000000019ad0 l    d  .eh_frame	0000000000000000 .eh_frame
000000000001ecc0 l    d  .rodata	0000000000000000 .rodata
0000000000020690 l    d  .gnu.hash	0000000000000000 .gnu.hash
00000000000206c0 l    d  .dynsym	0000000000000000 .dynsym
0000000000020750 l    d  .dynstr	0000000000000000 .dynstr
0000000000020780 l    d  .hash	0000000000000000 .hash
00000000000207b0 l    d  .rela.dyn	0000000000000000 .rela.dyn
0000000000021000 l    d  .dynamic	0000000000000000 .dynamic
0000000000021110 l    d  .got	0000000000000000 .got
00000000000212c0 l    d  .rela.got	0000000000000000 .rela.got
0000000000021770 l    d  .data	0000000000000000 .data
0000000000021948 l    d  .bss	0000000000000000 .bss
0000000000000000 l    d  .debug_info	0000000000000000 .debug_info
0000000000000000 l    d  .debug_abbrev	0000000000000000 .debug_abbrev
0000000000000000 l    d  .debug_loc	0000000000000000 .debug_loc
0000000000000000 l    d  .debug_aranges	0000000000000000 .debug_aranges
0000000000000000 l    d  .debug_ranges	0000000000000000 .debug_ranges
0000000000000000 l    d  .debug_macro	0000000000000000 .debug_macro
0000000000000000 l    d  .debug_line	0000000000000000 .debug_line
0000000000000000 l    d  .debug_str	0000000000000000 .debug_str
0000000000000000 l    d  .comment	0000000000000000 .comment
0000000000000000 l    df *ABS*	0000000000000000 user_ta_header.c
000000000001ed60 l     O .rodata	0000000000000004 __compound_literal.7
000000000001ed64 l     O .rodata	0000000000000001 __compound_literal.6
000000000001ed68 l     O .rodata	0000000000000004 __compound_literal.5
000000000001ed6c l     O .rodata	0000000000000004 __compound_literal.4
000000000001ed70 l     O .rodata	0000000000000004 __compound_literal.3
000000000001ed74 l     O .rodata	0000000000000001 __compound_literal.2
000000000001ed75 l     O .rodata	0000000000000001 __compound_literal.1
000000000001ed76 l     O .rodata	0000000000000001 __compound_literal.0
0000000000000000 l    df *ABS*	0000000000000000 memcpy.c
0000000000000000 l    df *ABS*	0000000000000000 darknetp_ta.c
000000000000010c l     F .text	000000000000016c make_convolutional_layer_TA_params
0000000000000278 l     F .text	0000000000000148 make_dropout_layer_TA_params
00000000000003c0 l     F .text	00000000000000ec make_connected_layer_TA_params
00000000000004ac l     F .text	00000000000000c8 make_softmax_layer_TA_params
0000000000000574 l     F .text	000000000000010c make_cost_layer_TA_params
0000000000000680 l     F .text	00000000000000bc make_maxpool_layer_TA_params.isra.0
000000000000073c l     F .text	00000000000000b8 make_avgpool_layer_TA_params.isra.0
0000000000021948 l     O .bss	0000000000000018 loop_back_obj
000000000001ede0 l     O .rodata	000000000000000e __func__.5476
000000000001edee l     O .rodata	0000000000000014 __func__.5480
000000000001ee02 l     O .rodata	0000000000000015 __func__.5484
000000000001ee17 l     O .rodata	0000000000000019 __func__.5491
000000000001ee30 l     O .rodata	000000000000001a __func__.5495
0000000000000000 l    df *ABS*	0000000000000000 softmax_layer_TA.c
000000000001f458 l     O .rodata	000000000000001a __func__.5256
0000000000000000 l    df *ABS*	0000000000000000 utils_TA.c
0000000000025b48 l     O .bss	0000000000000004 call.4103
0000000000025b4c l     O .bss	0000000000000004 X2.4102
0000000000000000 l    df *ABS*	0000000000000000 connected_layer_TA.c
0000000000000000 l    df *ABS*	0000000000000000 math_TA.c
0000000000001c38 l     F .text	00000000000000a0 ta_eee.localalias
0000000000001cd8 l     F .text	000000000000005c ta_exp.localalias
0000000000001f1c l     F .text	00000000000000e4 asr.localalias
0000000000000000 l    df *ABS*	0000000000000000 parser_TA.c
000000000001f495 l     O .rodata	000000000000000b __func__.4298
0000000000000000 l    df *ABS*	0000000000000000 activations_TA.c
0000000000000000 l    df *ABS*	0000000000000000 blas_TA.c
0000000000000000 l    df *ABS*	0000000000000000 maxpool_layer_TA.c
0000000000000000 l    df *ABS*	0000000000000000 network_TA.c
000000000001f544 l     O .rodata	0000000000000015 __func__.5327
0000000000000000 l    df *ABS*	0000000000000000 aes_TA.c
00000000000043c4 l     F .text	00000000000000c0 KeyExpansion
0000000000004484 l     F .text	0000000000000044 AddRoundKey
00000000000044c8 l     F .text	0000000000000018 xtime
00000000000044e0 l     F .text	0000000000000228 Cipher
0000000000004708 l     F .text	00000000000002e4 InvCipher
000000000001f559 l     O .rodata	0000000000000100 sbox
000000000001f659 l     O .rodata	000000000000000b Rcon
000000000001f664 l     O .rodata	0000000000000100 rsbox
0000000000000000 l    df *ABS*	0000000000000000 im2col_TA.c
0000000000000000 l    df *ABS*	0000000000000000 batchnorm_layer_TA.c
0000000000000000 l    df *ABS*	0000000000000000 dropout_layer_TA.c
0000000000000000 l    df *ABS*	0000000000000000 convolutional_layer_TA.c
0000000000000000 l    df *ABS*	0000000000000000 cost_layer_TA.c
000000000001eea5 l     O .rodata	0000000000000011 __func__.5232
0000000000000000 l    df *ABS*	0000000000000000 avgpool_layer_TA.c
0000000000000000 l    df *ABS*	0000000000000000 col2im_TA.c
0000000000000000 l    df *ABS*	0000000000000000 gemm_TA.c
0000000000000000 l    df *ABS*	0000000000000000 diffprivate_TA.c
0000000000000000 l    df *ABS*	0000000000000000 bget_malloc.c
0000000000006fd8 l     F .text	0000000000000010 _assert_trap
0000000000006fe8 l     F .text	0000000000000028 bget_buf_size.part.0
000000000001fba9 l     O .rodata	000000000000000e __func__.4016
000000000001fbb7 l     O .rodata	0000000000000005 __func__.3942
000000000001fbbc l     O .rodata	0000000000000006 __func__.3962
000000000001fbc2 l     O .rodata	0000000000000005 __func__.3983
000000000001fbc7 l     O .rodata	0000000000000006 __func__.3973
000000000001fbcd l     O .rodata	0000000000000006 __func__.3992
000000000001fbd3 l     O .rodata	0000000000000014 __func__.4202
000000000001fbe7 l     O .rodata	0000000000000013 __func__.4066
0000000000021878 l     O .data	0000000000000030 malloc_ctx
0000000000000000 l    df *ABS*	0000000000000000 stack_check.c
0000000000000000 l    df *ABS*	0000000000000000 memset.c
0000000000000000 l    df *ABS*	0000000000000000 strcmp.c
0000000000000000 l    df *ABS*	0000000000000000 strncmp.c
0000000000000000 l    df *ABS*	0000000000000000 trace.c
0000000000007dcc l     F .text	000000000000010c append
000000000001fc4c l     O .rodata	0000000000000005 lvl_strs.3647
000000000001fc51 l     O .rodata	000000000000000a __func__.3709
0000000000000000 l    df *ABS*	0000000000000000 snprintk.c
000000000000857c l     F .text	0000000000000be0 kprintf.constprop.0
000000000001ef46 l     O .rodata	0000000000000011 HEXDIGITS
000000000001ef57 l     O .rodata	0000000000000011 hexdigits
0000000000000000 l    df *ABS*	0000000000000000 memchr.c
0000000000000000 l    df *ABS*	0000000000000000 strlen.c
0000000000000000 l    df *ABS*	0000000000000000 assert.c
0000000000000000 l    df *ABS*	0000000000000000 trace_ext.c
0000000000000000 l    df *ABS*	0000000000000000 tee_api.c
0000000000009428 l     F .text	000000000000006c copy_param
0000000000009494 l     F .text	0000000000000070 copy_gp11_param
0000000000009504 l     F .text	0000000000000094 check_mem_access_rights_params
0000000000009598 l     F .text	0000000000000044 buf_overlaps_no_share_heap
00000000000095dc l     F .text	00000000000000a8 check_invoke_param
0000000000009684 l     F .text	00000000000000a8 update_out_param
000000000000972c l     F .text	00000000000000ac update_out_gp11_param
00000000000099a8 l     F .text	000000000000019c map_tmp_param
0000000000021aa8 l     O .bss	0000000000000008 tee_api_instance_data
000000000001ed98 l     O .rodata	000000000000000b __func__.5460
0000000000000000 l    df *ABS*	0000000000000000 tee_api_operations.c
000000000000a4e8 l     F .text	0000000000000118 __tee_alg_get_main_alg
000000000000a600 l     F .text	0000000000000254 tee_buffer_update
000000000000a854 l     F .text	00000000000000a4 __tee_alg_get_class
000000000000a8f8 l     F .text	000000000000005c reset_operation_state
000000000000a954 l     F .text	00000000000001e4 set_operation_key2
000000000000ab38 l     F .text	00000000000000dc ae_update_helper.part.0
000000000001ef72 l     O .rodata	0000000000000012 __func__.5474
0000000000000000 l    df *ABS*	0000000000000000 tee_api_panic.c
000000000000ec14 l     F .text	000000000000001c check_access
000000000000ec38 l     F .text	0000000000000044 check_res
000000000001fd6f l     O .rodata	000000000000000a __func__.4914
0000000000000000 l    df *ABS*	0000000000000000 tee_system_pta.c
000000000000ef00 l     F .text	0000000000000088 invoke_system_pta
000000000001ef84 l     O .rodata	0000000000000010 uuid.4677
000000000001ef94 l     O .rodata	000000000000000a __func__.4697
000000000001ef9e l     O .rodata	0000000000000017 __func__.4709
0000000000021ab8 l     O .bss	0000000000000008 sess.4676
0000000000000000 l    df *ABS*	0000000000000000 user_ta_entry.c
000000000000f210 l     F .text	00000000000000b0 _get_fn_array
000000000000f2c0 l     F .text	0000000000000090 _fini_iterate_phdr_cb
000000000000f350 l     F .text	0000000000000028 ta_header_get_session
000000000000f378 l     F .text	000000000000006c to_utee_params
000000000000f3e4 l     F .text	000000000000005c from_utee_params
000000000000f440 l     F .text	0000000000000094 _init_iterate_phdr_cb
000000000000f63c l     F .text	0000000000000098 ta_header_remove_session
000000000001fe1d l     O .rodata	0000000000000016 __func__.5424
0000000000021ac0 l     O .bss	0000000000000008 _num_mod_init
0000000000021ac8 l     O .bss	0000000000000001 init_done
00000000000218b0 l     O .data	0000000000000010 ta_sessions
00000000000218c0 l     O .data	0000000000000010 __phdr_info_head
0000000000000000 l    df *ABS*	0000000000000000 utee_syscalls_a64.o
0000000000000000 l    df *ABS*	0000000000000000 abort.c
0000000000000000 l    df *ABS*	0000000000000000 tee_api_arith_mpi.c
000000000000fc28 l     F .text	0000000000000030 api_panic
000000000000fc58 l     F .text	0000000000000030 mpi_panic
000000000000fc88 l     F .text	0000000000000098 get_mpi
000000000000fd20 l     F .text	0000000000000064 copy_mpi_to_bigint
000000000000fd84 l     F .text	000000000000014c bigint_binary
000000000000fed0 l     F .text	0000000000000020 mpi_is_odd
000000000000fef0 l     F .text	0000000000000028 rng_read
000000000000ff18 l     F .text	0000000000000574 mpi_egcd
0000000000021b30 l     O .bss	0000000000004000 data.5267
00000000000109b8 l     F .text	00000000000001d0 bigint_binary_mod
000000000001ff03 l     O .rodata	0000000000000008 __func__.5301
000000000001ff0b l     O .rodata	000000000000000e __func__.5439
000000000001ff19 l     O .rodata	0000000000000009 __func__.5603
000000000001ff22 l     O .rodata	0000000000000012 __func__.5268
000000000001ff34 l     O .rodata	000000000000000f __func__.5307
000000000001ff43 l     O .rodata	000000000000001f __func__.5335
000000000001ff62 l     O .rodata	0000000000000019 __func__.5349
000000000001ff7b l     O .rodata	0000000000000012 __func__.5458
000000000001ff8d l     O .rodata	0000000000000015 __func__.5380
000000000001ffa2 l     O .rodata	000000000000000e __func__.5479
000000000001ffb0 l     O .rodata	000000000000000e __func__.5508
000000000001ffbe l     O .rodata	000000000000000e __func__.5516
000000000001ffcc l     O .rodata	0000000000000011 __func__.5549
000000000001ffdd l     O .rodata	0000000000000018 __func__.5562
000000000001fff5 l     O .rodata	0000000000000011 __func__.5583
0000000000020006 l     O .rodata	000000000000001d __func__.5660
0000000000020023 l     O .rodata	0000000000000019 __func__.5733
000000000002003c l     O .rodata	0000000000000015 __func__.5748
0000000000000000 l    df *ABS*	0000000000000000 tee_api_objects.c
0000000000000000 l    df *ABS*	0000000000000000 tee_api_property.c
0000000000013864 l     F .text	000000000000006c propset_get
00000000000138d0 l     F .text	000000000000002c is_propset_pseudo_handle
00000000000138fc l     F .text	0000000000000148 propget_get_ext_prop
0000000000013a44 l     F .text	00000000000001b0 propget_get_property
000000000001efc8 l     O .rodata	0000000000000004 __compound_literal.3
000000000001efcc l     O .rodata	0000000000000004 __compound_literal.2
000000000001efd0 l     O .rodata	0000000000000004 __compound_literal.1
000000000001efd4 l     O .rodata	0000000000000004 __compound_literal.0
0000000000000000 l    df *ABS*	0000000000000000 tcb.c
0000000000020161 l     O .rodata	0000000000000010 __func__.4134
0000000000020171 l     O .rodata	0000000000000010 __func__.4161
0000000000025b30 l     O .bss	0000000000000008 _tls_size
0000000000025b38 l     O .bss	0000000000000008 _tcb
0000000000000000 l    df *ABS*	0000000000000000 base64.c
000000000001efdc l     O .rodata	0000000000000041 base64_table
0000000000000000 l    df *ABS*	0000000000000000 bignum.c
0000000000014d80 l     F .text	0000000000000064 mpi_get_digit
0000000000014de4 l     F .text	000000000000040c mpi_mul_hlp
00000000000151f0 l     F .text	0000000000000038 mpi_montg_init.isra.0
0000000000015228 l     F .text	00000000000000ac mpi_bigendian_to_host.part.0
00000000000152d4 l     F .text	00000000000000c0 mpi_fill_random_internal
0000000000015394 l     F .text	0000000000000148 mpi_montmul.isra.0
00000000000154dc l     F .text	0000000000000078 mpi_montred
00000000000156e0 l     F .text	000000000000006c mbedtls_mpi_resize_clear
0000000000017418 l     F .text	00000000000000c4 mpi_check_small_factors
0000000000017dfc l     F .text	00000000000002a4 mpi_miller_rabin
000000000001f020 l     O .rodata	00000000000002a0 small_prime
000000000001f2c0 l     O .rodata	0000000000000024 gcd_pairs
0000000000000000 l    df *ABS*	0000000000000000 constant_time.c
0000000000018f10 l     F .text	0000000000000020 mbedtls_ct_uchar_mask_of_range
0000000000000000 l    df *ABS*	0000000000000000 platform_util.c
0000000000021930 l     O .data	0000000000000008 memset_func
0000000000000000 l    df *ABS*	0000000000000000 snprintf.c
0000000000000000 l    df *ABS*	0000000000000000 memmove.c
0000000000000000 l    df *ABS*	0000000000000000 strlcpy.c
0000000000000000 l    df *ABS*	0000000000000000 mempool.c
0000000000020660 l     O .rodata	0000000000000013 __func__.3748
0000000000020673 l     O .rodata	000000000000000b __func__.3729
000000000002067e l     O .rodata	000000000000000e __func__.3754
0000000000000000 l    df *ABS*	0000000000000000 consttime_memcmp.c
0000000000000000 l    df *ABS*	0000000000000000 
0000000000021000 l     O *ABS*	0000000000000000 _DYNAMIC
0000000000021128 l     O *ABS*	0000000000000000 _GLOBAL_OFFSET_TABLE_
00000000000093b8 g     F .text	0000000000000070 putchar
000000000001060c g     F .text	0000000000000008 __GP11_TEE_BigIntConvertFromOctetString
00000000000126a4 g     F .text	0000000000000144 TEE_PopulateTransientObject
000000000000ceb4 g     F .text	0000000000000010 __GP11_TEE_AEInit
0000000000001718 g     F .text	0000000000000128 update_connected_layer_TA_new
0000000000011b38 g     F .text	0000000000000004 TEE_BigIntConvertToFMM
00000000000113ac g     F .text	000000000000000c TEE_BigIntSquareMod
0000000000010b88 g     F .text	00000000000001a0 TEE_BigIntShiftRight
0000000000007a04 g     F .text	0000000000000110 raw_malloc_add_pool
000000000000f100 g     F .text	0000000000000110 tee_invoke_supp_plugin
0000000000021978 g     O .bss	0000000000000008 ta_net_delta
00000000000155f8 g     F .text	00000000000000e8 mbedtls_mpi_grow
000000000000bfd0 g     F .text	0000000000000070 TEE_DigestUpdate
000000000001454c g     F .text	0000000000000128 __GP11_TEE_GetPropertyName
000000000000111c g     F .text	0000000000000120 forward_softmax_layer_TA
0000000000001be8 g     F .text	0000000000000050 ta_pow
000000000000a3f0 g     F .text	00000000000000d8 TEE_Realloc
000000000000be08 g     F .text	0000000000000020 TEE_SetOperationKey2
000000000000cc40 g     F .text	00000000000000a0 __GP11_TEE_MACComputeFinal
000000000000eed4 g     F .text	000000000000002c __utee_check_inout_annotation
00000000000077e8 g     F .text	0000000000000010 raw_free
0000000000009278 g     F .text	0000000000000100 printf
0000000000010f24 g     F .text	000000000000002c TEE_BigIntAbs
0000000000004a44 g     F .text	000000000000008c AES_CBC_encrypt_buffer
0000000000021970 g     O .bss	0000000000000008 netta_truth
000000000000c674 g     F .text	00000000000000a0 __GP11_TEE_CipherUpdate
000000000001292c g     F .text	000000000000004c TEE_InitRefAttribute
00000000000031d8 g     F .text	0000000000000020 fill_cpu_TA
0000000000006950 g     F .text	0000000000000094 backward_avgpool_layer_TA_new
000000000000f974 g     F .text	000000000000000c _utee_log
0000000000009de0 g     F .text	0000000000000184 TEE_InvokeTACommand
0000000000012a14 g     F .text	000000000000004c __GP11_TEE_InitValueAttribute
000000000000ec7c g     F .text	0000000000000064 __utee_check_outbuf_annotation
0000000000015564 g     F .text	0000000000000028 mbedtls_mpi_init_mempool
000000000000faf4 g     F .text	000000000000000c _utee_cryp_random_number_generate
0000000000015d60 g     F .text	00000000000000c4 mbedtls_mpi_write_binary
0000000000021960 g     O .bss	0000000000000004 debug_summary_pass
000000000000d1f4 g     F .text	0000000000000200 TEE_AEEncryptFinal
00000000000015e4 g     F .text	0000000000000134 backward_connected_layer_TA_new
0000000000008458 g     F .text	0000000000000058 vsnprintk
00000000000165dc g     F .text	0000000000000074 mbedtls_mpi_sub_int
000000000000dc88 g     F .text	00000000000001ac __GP11_TEE_AsymmetricDecrypt
0000000000004a34 g     F .text	0000000000000010 AES_ECB_decrypt
00000000000024ec g     F .text	000000000000004c bubble_sort_top
00000000000021ec g     F .text	0000000000000154 ta_sin
0000000000006ef8 g     F .text	00000000000000c4 diff_private_SGD
0000000000019818 g     F .text	000000000000005c memmove
00000000000196f0 g     F .text	00000000000000d0 snprintf
000000000001093c g     F .text	000000000000007c TEE_BigIntCmpS32
0000000000002f60 g     F .text	0000000000000054 activate_array_TA
0000000000002370 g     F .text	0000000000000034 reverse
000000000000a100 g     F .text	0000000000000008 __GP11_TEE_MemMove
0000000000005d1c g     F .text	0000000000000088 binarize_weights_TA
0000000000001c38 g     F .text	00000000000000a0 ta_eee
00000000000218a8 g     O .data	0000000000000008 __stack_chk_guard
0000000000019454 g     F .text	000000000000027c mbedtls_ct_rsaes_pkcs1_v15_unpadding
00000000000129c8 g     F .text	000000000000004c TEE_InitValueAttribute
000000000001574c g     F .text	0000000000000120 mbedtls_mpi_shrink
0000000000003504 g     F .text	00000000000000e8 softmax_TA
000000000000a118 g     F .text	0000000000000008 __GP11_TEE_MemFill
0000000000010f50 g     F .text	000000000000000c TEE_BigIntAdd
00000000000033e4 g     F .text	0000000000000030 axpy_cpu_TA
0000000000005570 g     F .text	0000000000000064 backward_dropout_layer_TA_new
000000000000fa94 g     F .text	000000000000000c _utee_cryp_obj_restrict_usage
0000000000005cd4 g     F .text	0000000000000024 convolutional_out_height_TA
0000000000012978 g     F .text	0000000000000050 __GP11_TEE_InitRefAttribute
000000000001ed80 g     O .rodata	0000000000000008 ta_heap_size
0000000000012614 g     F .text	0000000000000090 TEE_ResetTransientObject
0000000000002068 g     F .text	0000000000000034 ta_log
0000000000021964 g     O .bss	0000000000000004 debug_summary_com
000000000000fb3c g     F .text	000000000000000c _utee_asymm_operate
0000000000014b28 g     F .text	0000000000000018 _base64_enc_len
0000000000002cb0 g     F .text	00000000000002b0 activate_TA
00000000000168a4 g     F .text	000000000000020c mbedtls_mpi_read_string
0000000000012cf8 g     F .text	000000000000010c __GP11_TEE_GenerateKey
0000000000004e18 g     F .text	00000000000001dc forward_batchnorm_layer_TA
000000000000c3f8 g     F .text	00000000000000e0 TEE_CipherInit
000000000002193c g     O .data	0000000000000004 avg_loss
0000000000010f68 g     F .text	00000000000000e4 TEE_BigIntNeg
0000000000003e68 g     F .text	0000000000000078 calc_network_cost_TA
000000000000fb90 g     F .text	000000000000000c _utee_storage_free_enum
0000000000001394 g     F .text	0000000000000024 sum_array_TA
0000000000000020 g       .text	0000000000000000 __text_start
00000000000146fc g     F .text	00000000000000e0 TEE_GetNextProperty
0000000000013268 g     F .text	0000000000000050 TEE_StartPersistentObjectEnumerator
0000000000015f34 g     F .text	00000000000000c0 mbedtls_mpi_shift_r
0000000000007d0c g     F .text	0000000000000014 malloc_buffer_overlaps_heap
000000000000fa40 g     F .text	000000000000000c _utee_hash_init
0000000000011394 g     F .text	000000000000000c TEE_BigIntSubMod
000000000001879c g     F .text	000000000000034c mbedtls_mpi_gen_prime
000000000001427c g     F .text	0000000000000098 TEE_GetPropertyAsBinaryBlock
0000000000015a28 g     F .text	000000000000002c mbedtls_mpi_get_bit
000000000001ed78 g     O .rodata	0000000000000008 __ta_no_share_heap_size
0000000000015c24 g     F .text	0000000000000084 mbedtls_mpi_read_binary
0000000000002340 g     F .text	0000000000000030 ta_tan
000000000000cdf0 g     F .text	00000000000000c4 TEE_AEInit
0000000000008120 g     F .text	00000000000000e0 trace_printf
00000000000174e4 g     F .text	0000000000000008 mbedtls_mpi_montmul
000000000000fbfc g     F .text	000000000000000c _utee_cache_operation
0000000000000020 g     F .text	00000000000000ec memcpy
0000000000006cbc g     F .text	0000000000000088 gemm_nt_TA
0000000000011b3c g     F .text	00000000000000d0 TEE_BigIntConvertFromFMM
000000000000ec30 g     F .text	0000000000000008 TEE_Panic
0000000000003810 g     F .text	00000000000001e0 forward_maxpool_layer_TA_new
000000000000be74 g     F .text	000000000000015c TEE_CopyOperation
0000000000001e54 g     F .text	000000000000000c F1
0000000000009378 g     F .text	0000000000000040 puts
0000000000011c0c g     F .text	0000000000000148 TEE_BigIntComputeFMM
000000000000a23c g     F .text	0000000000000028 TEE_GetREETime
0000000000013188 g     F .text	0000000000000090 TEE_AllocatePersistentObjectEnumerator
0000000000021980 g     O .bss	0000000000000008 ta_net_input
0000000000002050 g     F .text	0000000000000018 ta_ln
0000000000021770 g     O .data	0000000000000108 ta_props
000000000000d754 g     F .text	00000000000001c4 TEE_AsymmetricEncrypt
000000000000a388 g     F .text	0000000000000008 __GP11_TEE_Malloc
0000000000003798 g     F .text	0000000000000048 l1_cpu_TA
0000000000009c98 g     F .text	0000000000000148 __GP11_TEE_OpenTASession
000000000000ed44 g     F .text	000000000000003c __utee_check_instring_annotation
0000000000007930 g     F .text	0000000000000018 malloc
0000000000014538 g     F .text	0000000000000004 TEE_FreePropertyEnumerator
0000000000018f88 g     F .text	0000000000000010 mbedtls_ct_mpi_uint_mask
000000000000c4d8 g     F .text	0000000000000008 __GP11_TEE_CipherInit
0000000000012bec g     F .text	000000000000010c TEE_GenerateKey
00000000000197c0 g     F .text	0000000000000058 vsnprintf
0000000000021940 g     O .data	0000000000000004 trace_level
0000000000004200 g     F .text	00000000000001c4 backward_network_TA
0000000000012ee8 g     F .text	0000000000000008 __GP11_TEE_OpenPersistentObject
00000000000108a8 g     F .text	0000000000000094 TEE_BigIntCmp
000000000001ed58 g     O .rodata	0000000000000008 ta_num_props
00000000000075e4 g     F .text	00000000000000d0 bgetr
000000000000fb54 g     F .text	000000000000000c _utee_storage_obj_open
000000000000a10c g     F .text	0000000000000008 __GP11_TEE_MemCompare
0000000000019a48 g     F .text	0000000000000014 mempool_free
000000000000c4e0 g     F .text	0000000000000194 TEE_CipherUpdate
000000000000fa4c g     F .text	000000000000000c _utee_hash_update
0000000000010614 g     F .text	00000000000000c8 TEE_BigIntConvertToOctetString
000000000000ba0c g     F .text	00000000000001b0 TEE_GetOperationInfoMultiple
00000000000013b8 g     F .text	000000000000003c rand_uniform_TA
000000000000587c g     F .text	0000000000000068 add_bias_TA
0000000000015b34 g     F .text	000000000000005c mbedtls_mpi_bitlen
0000000000010d30 g     F .text	0000000000000080 TEE_BigIntGetBit
000000000001ed88 g     O .rodata	0000000000000003 trace_ext_prefix
000000000000fbb4 g     F .text	000000000000000c _utee_storage_next_enum
00000000000035ec g     F .text	00000000000000bc softmax_cpu_TA
0000000000005da4 g     F .text	0000000000000030 binarize_cpu_TA
0000000000006ef4 g     F .text	0000000000000004 gemm_TA
00000000000031f8 g     F .text	0000000000000028 copy_cpu_TA
00000000000077d8 g     F .text	0000000000000010 raw_malloc
00000000000072d8 g     F .text	0000000000000088 bgetz
0000000000018f98 g     F .text	0000000000000018 mbedtls_ct_size_bool_eq
000000000000a0f0 g     F .text	000000000000000c TEE_GetInstanceData
000000000000a148 g     F .text	000000000000003c TEE_Wait
0000000000004a24 g     F .text	0000000000000010 AES_ECB_encrypt
0000000000016650 g     F .text	00000000000001ac mbedtls_mpi_mul_mpi
0000000000010d28 g     F .text	0000000000000008 __GP11_TEE_BigIntShiftRight
000000000000a4d8 g     F .text	0000000000000008 TEE_CacheFlush
0000000000007f04 g     F .text	000000000000021c trace_vprintf
000000000000097c g     F .text	0000000000000024 TA_DestroyEntryPoint
0000000000015554 g     F .text	0000000000000010 mbedtls_mpi_init
000000000000fb6c g     F .text	000000000000000c _utee_storage_obj_del
0000000000015ae0 g     F .text	0000000000000054 mbedtls_mpi_lsb
000000000000c92c g     F .text	00000000000000b0 __GP11_TEE_CipherDoFinal
00000000000091f0 g     F .text	0000000000000044 _assert_log
00000000000053bc g     F .text	0000000000000180 backward_batchnorm_layer_TA
000000000000d0d4 g     F .text	0000000000000120 __GP11_TEE_AEUpdate
000000000000fa28 g     F .text	000000000000000c _utee_cryp_state_copy
0000000000003ee0 g     F .text	000000000000021c forward_network_TA
0000000000011b18 g     F .text	0000000000000008 TEE_BigIntFMMContextSizeInU32
000000000000f038 g     F .text	00000000000000c8 tee_unmap
000000000000cce0 g     F .text	0000000000000104 TEE_MACCompareFinal
0000000000018fcc g     F .text	0000000000000030 mbedtls_ct_uint_if
0000000000006688 g     F .text	00000000000000e0 get_cost_type_TA
0000000000013124 g     F .text	000000000000005c TEE_RenamePersistentObject
000000000000c048 g     F .text	000000000000016c TEE_DigestDoFinal
00000000000127e8 g     F .text	0000000000000144 __GP11_TEE_PopulateTransientObject
000000000001048c g     F .text	0000000000000050 _TEE_MathAPI_Init
00000000000147dc g     F .text	0000000000000240 __utee_tcb_init
0000000000016454 g     F .text	0000000000000088 mbedtls_mpi_add_mpi
000000000000fc08 g     F .text	0000000000000020 abort
00000000000180a0 g     F .text	00000000000001b8 mbedtls_mpi_random
00000000000049f0 g     F .text	0000000000000028 AES_init_ctx_iv
0000000000007d20 g     F .text	0000000000000030 __stack_chk_fail
0000000000004cd0 g     F .text	0000000000000148 im2col_cpu_TA
000000000000ee48 g     F .text	000000000000002c __utee_check_out_annotation
0000000000025b58 g     O .bss	0000000000a00000 ta_heap
00000000000113b8 g     F .text	0000000000000150 TEE_BigIntInvMod
0000000000006594 g     F .text	00000000000000d0 forward_cost_layer_TA
000000000000c040 g     F .text	0000000000000008 __GP11_TEE_DigestUpdate
000000000000f4d4 g     F .text	0000000000000158 __utee_call_elf_init_fn
0000000000011eb0 g     F .text	00000000000000c4 __GP11_TEE_GetObjectInfo
0000000000000a10 g     F .text	0000000000000024 TA_CloseSessionEntryPoint
000000000000f9b0 g     F .text	000000000000000c _utee_close_ta_session
00000000000069e4 g     F .text	00000000000000c0 make_avgpool_layer_TA
0000000000012024 g     F .text	00000000000000c0 __GP11_TEE_GetObjectInfo1
0000000000011ae0 g     F .text	0000000000000008 __GP11_TEE_BigIntInitFMMContext
000000000000dac0 g     F .text	00000000000001c8 TEE_AsymmetricDecrypt
0000000000012e04 g     F .text	00000000000000e4 TEE_OpenPersistentObject
00000000000164dc g     F .text	000000000000008c mbedtls_mpi_sub_mpi
0000000000019a5c g     F .text	0000000000000070 consttime_memcmp
000000000000f968 g     F .text	000000000000000c _utee_return
000000000000f980 g     F .text	000000000000000c __utee_panic
0000000000018f30 g     F .text	0000000000000048 mbedtls_ct_memcmp
0000000000006664 g     F .text	0000000000000024 backward_cost_layer_TA
0000000000014a1c g     F .text	000000000000001c __tls_get_addr
0000000000000a34 g     F .text	00000000000006e8 TA_InvokeCommandEntryPoint
000000000000f62c g     F .text	0000000000000010 __utee_call_elf_fini_fn
0000000000021938 g     O .data	0000000000000004 norm_output
00000000000079c0 g     F .text	0000000000000010 free_wipe
0000000000019994 g     F .text	0000000000000064 mempool_alloc
000000000000f95c g     F .text	000000000000000c _utee_panic
00000000000079d8 g     F .text	000000000000002c raw_malloc_init_ctx
00000000000199f8 g     F .text	0000000000000050 mempool_calloc
000000000000fbf0 g     F .text	000000000000000c _utee_cryp_obj_generate_key
0000000000012b58 g     F .text	0000000000000094 TEE_CopyObjectAttributes
000000000000fbd8 g     F .text	000000000000000c _utee_storage_obj_trunc
00000000000218d0 g     O .data	0000000000000060 tee_props
000000000000f9e0 g     F .text	000000000000000c _utee_unmask_cancellation
00000000000144e4 g     F .text	000000000000000c TEE_ResetPropertyEnumerator
0000000000007948 g     F .text	000000000000001c calloc
000000000000a264 g     F .text	0000000000000124 TEE_Malloc
0000000000006024 g     F .text	0000000000000570 make_convolutional_layer_TA_new
0000000000009920 g     F .text	0000000000000088 TEE_CheckMemoryAccessRights
0000000000014314 g     F .text	00000000000000e8 TEE_GetPropertyAsUUID
000000000000f98c g     F .text	000000000000000c _utee_get_property
000000000000c1b4 g     F .text	00000000000000a0 __GP11_TEE_DigestDoFinal
0000000000010e24 g     F .text	00000000000000b0 TEE_BigIntSetBit
00000000000159c0 g     F .text	0000000000000068 mbedtls_mpi_lset
000000000000be28 g     F .text	000000000000004c __GP11_TEE_SetOperationKey2
0000000000013500 g     F .text	00000000000000c8 TEE_ReadObjectData
00000000000121b8 g     F .text	0000000000000104 TEE_GetObjectBufferAttribute
0000000000005cf8 g     F .text	0000000000000024 convolutional_out_width_TA
00000000000009a0 g     F .text	0000000000000070 TA_OpenSessionEntryPoint
000000000000ac14 g     F .text	0000000000000040 TEE_FreeOperation
0000000000014a38 g     F .text	00000000000000f0 dl_iterate_phdr
0000000000a25b58 g       .bss	0000000000000000 __ftrace_buf_end
0000000000021ad0 g     O .bss	0000000000000004 ta_param_types
000000000000123c g     F .text	0000000000000024 backward_softmax_layer_TA
0000000000021988 g     O .bss	0000000000000118 netta
00000000000007f4 g     F .text	0000000000000150 summary_array
0000000000016fe4 g     F .text	0000000000000074 mbedtls_mpi_div_int
0000000000011d54 g     F .text	0000000000000050 __utee_from_attr
0000000000002a48 g     F .text	00000000000000c8 get_activation_string_TA
0000000000003220 g     F .text	000000000000008c mean_cpu_TA
00000000000186b0 g     F .text	00000000000000dc mbedtls_mpi_is_prime_ext
0000000000011a4c g     F .text	0000000000000084 TEE_BigIntIsProbablePrime
00000000000167fc g     F .text	00000000000000a8 mbedtls_mpi_mul_int
00000000000130b0 g     F .text	0000000000000048 TEE_CloseAndDeletePersistentObject1
00000000000174f0 g     F .text	00000000000006cc mbedtls_mpi_exp_mod
0000000000021968 g     O .bss	0000000000000004 netnum
00000000000191a4 g     F .text	00000000000000bc mbedtls_mpi_safe_cond_assign
0000000000005278 g     F .text	0000000000000144 normalize_delta_cpu_TA
0000000000013bf4 g     F .text	000000000000025c TEE_GetPropertyAsString
000000000000506c g     F .text	00000000000000f4 mean_delta_cpu_TA
000000000001935c g     F .text	00000000000000f8 mbedtls_mpi_lt_mpi_ct
000000000000d4c8 g     F .text	00000000000001d4 TEE_AEDecryptFinal
00000000000104dc g     F .text	0000000000000060 TEE_BigIntInit
00000000000106dc g     F .text	0000000000000060 __GP11_TEE_BigIntConvertToOctetString
0000000000010ed4 g     F .text	0000000000000050 TEE_BigIntAssign
000000000000ed80 g     F .text	0000000000000064 __utee_check_outstring_annotation
0000000000001bdc g     F .text	000000000000000c ta_max
000000000000a0fc g     F .text	0000000000000004 TEE_MemMove
00000000000196d0 g     F .text	0000000000000020 mbedtls_platform_zeroize
0000000000002444 g     F .text	00000000000000a8 ftoa
0000000000010544 g     F .text	00000000000000c8 TEE_BigIntConvertFromOctetString
000000000000fb30 g     F .text	000000000000000c _utee_authenc_dec_final
0000000000015ff4 g     F .text	000000000000009c mbedtls_mpi_cmp_abs
000000000000fbc0 g     F .text	000000000000000c _utee_storage_obj_read
000000000000c9dc g     F .text	00000000000000a4 TEE_MACInit
000000000000de34 g     F .text	00000000000001a0 TEE_AsymmetricSignDigest
00000000000091a8 g     F .text	000000000000002c memchr
0000000000009860 g     F .text	0000000000000060 TEE_UnmaskCancellation
0000000000005dd4 g     F .text	0000000000000250 forward_convolutional_layer_TA_new
0000000000011df4 g     F .text	00000000000000bc TEE_GetObjectInfo
0000000000018ae8 g     F .text	0000000000000428 mbedtls_mpi_self_test
000000000000fbe4 g     F .text	000000000000000c _utee_storage_obj_seek
000000000000ece0 g     F .text	0000000000000064 __utee_check_gp11_outbuf_annotation
000000000000cff4 g     F .text	00000000000000e0 TEE_AEUpdate
0000000000012584 g     F .text	0000000000000090 TEE_FreeTransientObject
000000000000f9d4 g     F .text	000000000000000c _utee_check_access_rights
0000000000009f64 g     F .text	0000000000000178 __GP11_TEE_InvokeTACommand
0000000000016164 g     F .text	0000000000000074 mbedtls_mpi_cmp_int
0000000000014c5c g     F .text	0000000000000124 _base64_dec
000000000000fb9c g     F .text	000000000000000c _utee_storage_reset_enum
000000000000b98c g     F .text	000000000000002c __GP11_TEE_FreeOperation
00000000000190e8 g     F .text	00000000000000bc mbedtls_ct_base64_dec_value
0000000000002b10 g     F .text	00000000000001a0 get_activation_TA
000000000000e814 g     F .text	0000000000000058 rand
000000000000ee74 g     F .text	0000000000000030 __utee_check_attr_in_annotation
000000000000fb18 g     F .text	000000000000000c _utee_authenc_update_payload
0000000000021aa0 g     O .bss	0000000000000008 ta_net_output
000000000000b9b8 g     F .text	0000000000000054 TEE_GetOperationInfo
000000000001131c g     F .text	000000000000006c TEE_BigIntMod
000000000001710c g     F .text	000000000000009c mbedtls_mpi_mod_int
000000000000dfd4 g     F .text	00000000000001a0 __GP11_TEE_AsymmetricSignDigest
0000000000015bac g     F .text	0000000000000078 mbedtls_mpi_read_binary_le
0000000000011168 g     F .text	00000000000001b4 TEE_BigIntDiv
000000000000faac g     F .text	000000000000000c _utee_cryp_obj_alloc
0000000000004a18 g     F .text	000000000000000c AES_ctx_set_iv
0000000000a25b58 g       .bss	0000000000000000 __ftrace_buf_start
0000000000019874 g     F .text	0000000000000058 strlcpy
0000000000019038 g     F .text	00000000000000b0 mbedtls_ct_base64_enc_char
0000000000007d90 g     F .text	000000000000003c strncmp
00000000000036a8 g     F .text	000000000000008c softmax_x_ent_cpu_TA
000000000001586c g     F .text	00000000000000cc mbedtls_mpi_copy
0000000000001f1c g     F .text	00000000000000e4 asr
000000000000e86c g     F .text	00000000000003a8 TEE_IsAlgorithmSupported
0000000000001d34 g     F .text	0000000000000098 ta_rand
00000000000143fc g     F .text	00000000000000e8 TEE_GetPropertyAsIdentity
000000000000915c g     F .text	000000000000004c __vsprintf
00000000000140a8 g     F .text	00000000000000e8 TEE_GetPropertyAsU64
000000000000fa10 g     F .text	000000000000000c _utee_set_ta_time
0000000000001de0 g     F .text	0000000000000074 ta_sqrt
000000000000f9bc g     F .text	000000000000000c _utee_invoke_ta_command
0000000000006aa4 g     F .text	0000000000000018 resize_avgpool_layer_TA
00000000000120e4 g     F .text	0000000000000044 TEE_RestrictObjectUsage1
0000000000007964 g     F .text	0000000000000018 realloc
0000000000015938 g     F .text	0000000000000088 mbedtls_mpi_swap
0000000000006d44 g     F .text	0000000000000080 gemm_tn_TA
00000000000198cc g     F .text	00000000000000c8 mempool_alloc_pool
000000000001104c g     F .text	0000000000000114 TEE_BigIntMul
000000000000bc44 g     F .text	000000000000003c TEE_ResetOperation
00000000000079d0 g     F .text	0000000000000008 raw_malloc_get_ctx_size
0000000000003a48 g     F .text	0000000000000130 make_maxpool_layer_TA
0000000000015e24 g     F .text	0000000000000110 mbedtls_mpi_shift_l
0000000000001840 g     F .text	000000000000039c make_connected_layer_TA_new
0000000000016090 g     F .text	00000000000000d4 mbedtls_mpi_cmp_mpi
000000000000a114 g     F .text	0000000000000004 TEE_MemFill
0000000000007ce4 g     F .text	0000000000000014 malloc_add_pool
0000000000003170 g     F .text	0000000000000068 gradient_array_TA
000000000000ca88 g     F .text	00000000000000a0 TEE_MACUpdate
0000000000007ef4 g     F .text	0000000000000010 trace_get_level
00000000000161d8 g     F .text	0000000000000120 mbedtls_mpi_add_abs
0000000000012128 g     F .text	0000000000000090 TEE_RestrictObjectUsage
0000000000011af0 g     F .text	0000000000000010 TEE_BigIntFMMSizeInU32
0000000000013ee8 g     F .text	00000000000000d8 TEE_GetPropertyAsBool
0000000000007848 g     F .text	00000000000000e8 raw_realloc
0000000000011ad0 g     F .text	0000000000000004 TEE_BigIntInitFMM
000000000001248c g     F .text	0000000000000028 TEE_CloseObject
000000000000fa64 g     F .text	000000000000000c _utee_cipher_init
000000000000f6d4 g     F .text	0000000000000288 __utee_entry
0000000000013fc0 g     F .text	00000000000000e8 TEE_GetPropertyAsU32
0000000000019acc g       .text	0000000000000000 __text_end
0000000000011508 g     F .text	0000000000000108 TEE_BigIntRelativePrime
0000000000017058 g     F .text	00000000000000b4 mbedtls_mpi_mod_mpi
000000000000fa88 g     F .text	000000000000000c _utee_cryp_obj_get_info
0000000000004c9c g     F .text	0000000000000034 im2col_get_pixel_TA
00000000000144f0 g     F .text	0000000000000048 TEE_AllocatePropertyEnumerator
00000000000076b4 g     F .text	00000000000000d0 bpool
0000000000005160 g     F .text	0000000000000118 variance_delta_cpu_TA
0000000000001260 g     F .text	0000000000000134 make_softmax_layer_TA_new
000000000000fa1c g     F .text	000000000000000c _utee_cryp_state_alloc
0000000000009800 g     F .text	0000000000000060 TEE_GetCancellationFlag
0000000000002760 g     F .text	00000000000000a4 transpose_matrix_TA
0000000000013034 g     F .text	000000000000007c __GP11_TEE_CreatePersistentObject
0000000000002538 g     F .text	0000000000000228 aes_cbc_TA
000000000000553c g     F .text	0000000000000034 forward_dropout_layer_TA_new
0000000000017bbc g     F .text	00000000000001d8 mbedtls_mpi_gcd
000000000000a1f8 g     F .text	0000000000000044 TEE_SetTAPersistentTime
0000000000015ca8 g     F .text	00000000000000b8 mbedtls_mpi_write_binary_le
0000000000007d50 g     F .text	000000000000001c memset
0000000000007784 g     F .text	0000000000000054 raw_memalign
000000000000a184 g     F .text	0000000000000074 TEE_GetTAPersistentTime
0000000000005710 g     F .text	0000000000000038 resize_dropout_layer_TA
000000000000bdcc g     F .text	000000000000003c __GP11_TEE_SetOperationKey
000000000000d3f4 g     F .text	00000000000000d4 __GP11_TEE_AEEncryptFinal
0000000000008200 g     F .text	0000000000000198 dhex_dump
0000000000012ef0 g     F .text	0000000000000144 TEE_CreatePersistentObject
00000000000098c0 g     F .text	0000000000000060 TEE_MaskCancellation
000000000000cec4 g     F .text	000000000000009c TEE_AEUpdateAAD
00000000000136e0 g     F .text	000000000000005c TEE_TruncateObjectData
000000000000faa0 g     F .text	000000000000000c _utee_cryp_obj_get_attr
000000000000594c g     F .text	00000000000000a0 backward_bias_TA
0000000000011f74 g     F .text	00000000000000b0 TEE_GetObjectInfo1
0000000000001dcc g     F .text	0000000000000014 ta_floor
000000000000fa7c g     F .text	000000000000000c _utee_cipher_final
0000000000007ed8 g     F .text	000000000000001c trace_set_level
0000000000002970 g     F .text	00000000000000d8 save_weights_TA
00000000000033bc g     F .text	0000000000000028 scal_cpu_TA
0000000000012354 g     F .text	0000000000000138 TEE_GetObjectValueAttribute
00000000000055d4 g     F .text	000000000000013c make_dropout_layer_TA_new
000000000000bc80 g     F .text	000000000000014c TEE_SetOperationKey
0000000000018fb0 g     F .text	000000000000001c mbedtls_ct_mpi_uint_lt
00000000000122bc g     F .text	0000000000000098 __GP11_TEE_GetObjectBufferAttribute
00000000000039f0 g     F .text	0000000000000058 backward_maxpool_layer_TA_new
000000000000fa34 g     F .text	000000000000000c _utee_cryp_state_free
0000000000007d6c g     F .text	0000000000000024 strcmp
000000000000f9a4 g     F .text	000000000000000c _utee_open_ta_session
00000000000107ec g     F .text	00000000000000bc TEE_BigIntConvertToS32
0000000000010f5c g     F .text	000000000000000c TEE_BigIntSub
000000000001385c g     F .text	0000000000000008 __GP11_TEE_SeekObjectData
0000000000006fd0 g     F .text	0000000000000008 tahead_get_trace_level
00000000000040fc g     F .text	0000000000000104 calc_network_loss_TA
0000000000003c20 g     F .text	000000000000018c make_network_TA
000000000000fba8 g     F .text	000000000000000c _utee_storage_start_enum
0000000000013744 g     F .text	0000000000000118 TEE_SeekObjectData
0000000000025b54 g     O .bss	0000000000000004 roundnum
000000000000ef88 g     F .text	00000000000000b0 tee_map_zi
000000000001373c g     F .text	0000000000000008 __GP11_TEE_TruncateObjectData
00000000000174ec g     F .text	0000000000000004 mbedtls_mpi_montred
0000000000018f78 g     F .text	0000000000000010 mbedtls_ct_uint_mask
000000000000797c g     F .text	000000000000001c memalign
000000000000c714 g     F .text	0000000000000218 TEE_CipherDoFinal
000000000001053c g     F .text	0000000000000008 __GP11_TEE_BigIntInit
000000000001073c g     F .text	00000000000000b0 TEE_BigIntConvertFromS32
00000000000037e0 g     F .text	0000000000000030 l2_cpu_TA
0000000000016568 g     F .text	0000000000000074 mbedtls_mpi_add_int
000000000000fb24 g     F .text	000000000000000c _utee_authenc_enc_final
00000000000013f4 g     F .text	00000000000000f8 rand_normal_TA
00000000000023a4 g     F .text	00000000000000a0 intToStr
0000000000007cf8 g     F .text	0000000000000014 malloc_buffer_is_within_alloced
0000000000004ff4 g     F .text	0000000000000078 backward_scale_cpu_TA
000000000000fab8 g     F .text	000000000000000c _utee_cryp_obj_close
000000000000e80c g     F .text	0000000000000008 __GP11_TEE_GenerateRandom
0000000000011adc g     F .text	0000000000000004 TEE_BigIntInitFMMContext
000000000000f9ec g     F .text	000000000000000c _utee_mask_cancellation
0000000000021ad8 g     O .bss	0000000000000008 __ta_no_share_malloc_ctx
00000000000032ac g     F .text	0000000000000110 variance_cpu_TA
000000000000fb78 g     F .text	000000000000000c _utee_storage_obj_rename
00000000000133d4 g     F .text	000000000000012c __GP11_TEE_GetNextPersistentObject
0000000000013660 g     F .text	0000000000000078 TEE_WriteObjectData
0000000000013240 g     F .text	0000000000000028 TEE_ResetPersistentObjectEnumerator
000000000000a0dc g     F .text	0000000000000008 __GP11_TEE_CheckMemoryAccessRights
0000000000011160 g     F .text	0000000000000008 TEE_BigIntSquare
000000000000fbcc g     F .text	000000000000000c _utee_storage_obj_write
0000000000003414 g     F .text	00000000000000f0 normalize_cpu_TA
0000000000000944 g     F .text	0000000000000038 TA_CreateEntryPoint
0000000000006fbc g     F .text	0000000000000014 __ta_entry
0000000000a25b58 g     O .bss	0000000000000000 __ta_no_share_heap
000000000000fb0c g     F .text	000000000000000c _utee_authenc_update_aad
00000000000174dc g     F .text	0000000000000008 mbedtls_mpi_montg_init
00000000000084b0 g     F .text	00000000000000cc snprintk
0000000000010db0 g     F .text	0000000000000074 TEE_BigIntGetBitCount
0000000000003734 g     F .text	0000000000000064 smooth_l1_cpu_TA
000000000000fadc g     F .text	000000000000000c _utee_cryp_obj_copy
000000000000cf60 g     F .text	0000000000000094 __GP11_TEE_AEUpdateAAD
0000000000004ad0 g     F .text	00000000000000d8 AES_CBC_decrypt_buffer
00000000000113a0 g     F .text	000000000000000c TEE_BigIntMulMod
0000000000018258 g     F .text	0000000000000458 mbedtls_mpi_inv_mod
000000000000eea4 g     F .text	0000000000000030 __utee_check_gp11_attr_in_annotation
000000000000e48c g     F .text	00000000000001b0 TEE_DeriveKey
0000000000021ae0 g     O .bss	0000000000000040 ta_params
0000000000016ab0 g     F .text	0000000000000534 mbedtls_mpi_div_mpi
000000000000ede4 g     F .text	0000000000000064 __utee_check_gp11_outstring_annotation
0000000000015b90 g     F .text	000000000000001c mbedtls_mpi_size
0000000000007010 g     F .text	00000000000002c8 bget
00000000000135c8 g     F .text	0000000000000098 __GP11_TEE_ReadObjectData
0000000000012568 g     F .text	000000000000001c TEE_AllocateTransientObject
000000000000cb28 g     F .text	0000000000000008 __GP11_TEE_MACUpdate
0000000000011b20 g     F .text	0000000000000018 __GP11_TEE_BigIntFMMContextSizeInU32
000000000001453c g     F .text	0000000000000010 TEE_StartPropertyEnumerator
000000000000f9f8 g     F .text	000000000000000c _utee_wait
0000000000015a54 g     F .text	000000000000008c mbedtls_mpi_set_bit
000000000000a390 g     F .text	0000000000000060 TEE_Free
0000000000006abc g     F .text	0000000000000038 col2im_add_pixel_TA
0000000000002804 g     F .text	000000000000016c load_weights_TA
000000000001878c g     F .text	0000000000000010 mbedtls_mpi_is_prime
00000000000059ec g     F .text	00000000000002e8 backward_convolutional_layer_TA_new
000000000000a4e0 g     F .text	0000000000000008 TEE_CacheInvalidate
0000000000001e88 g     F .text	0000000000000094 simpson
0000000000001cd8 g     F .text	000000000000005c ta_exp
0000000000009234 g     F .text	0000000000000014 _assert_break
0000000000011388 g     F .text	000000000000000c TEE_BigIntAddMod
0000000000018ffc g     F .text	000000000000003c mbedtls_ct_mpi_uint_cond_assign
0000000000005748 g     F .text	0000000000000120 update_convolutional_layer_TA_new
000000000000209c g     F .text	0000000000000150 ta_cos
0000000000011ad4 g     F .text	0000000000000008 __GP11_TEE_BigIntInitFMM
000000000000fa04 g     F .text	000000000000000c _utee_get_time
0000000000014674 g     F .text	0000000000000088 TEE_GetPropertyName
000000000000a4c8 g     F .text	0000000000000008 __GP11_TEE_Realloc
000000000000ac54 g     F .text	0000000000000d38 TEE_AllocateOperation
000000000000fad0 g     F .text	000000000000000c _utee_cryp_obj_populate
0000000000006c38 g     F .text	0000000000000084 gemm_nn_TA
000000000000bbbc g     F .text	0000000000000088 __GP11_TEE_GetOperationInfoMultiple
0000000000011da4 g     F .text	0000000000000050 __utee_from_gp11_attr
0000000000025b50 g     O .bss	0000000000000004 err_sum
000000000000e7ec g     F .text	0000000000000020 TEE_GenerateRandom
000000000000c254 g     F .text	00000000000001a4 TEE_DigestExtract
000000000000a108 g     F .text	0000000000000004 TEE_MemCompare
000000000000fa70 g     F .text	000000000000000c _utee_cipher_update
0000000000008398 g     F .text	00000000000000c0 __vsnprintf
0000000000021b20 g     O .bss	0000000000000010 __elf_phdr_info
0000000000002000 g     F .text	0000000000000050 asr0
0000000000013218 g     F .text	0000000000000028 TEE_FreePersistentObjectEnumerator
0000000000009b44 g     F .text	0000000000000154 TEE_OpenTASession
000000000000e63c g     F .text	00000000000001b0 __GP11_TEE_DeriveKey
000000000000d69c g     F .text	00000000000000b8 __GP11_TEE_AEDecryptFinal
00000000000049ec g     F .text	0000000000000004 AES_init_ctx
0000000000009248 g     F .text	0000000000000028 trace_ext_puts
0000000000013e50 g     F .text	0000000000000098 __GP11_TEE_GetPropertyAsString
0000000000007b94 g     F .text	0000000000000150 raw_malloc_buffer_is_within_alloced
0000000000001e60 g     F .text	0000000000000028 F2
0000000000009270 g     F .text	0000000000000008 trace_ext_get_thread_id
0000000000007b14 g     F .text	0000000000000080 raw_malloc_buffer_overlaps_heap
00000000000130f8 g     F .text	000000000000002c TEE_CloseAndDeletePersistentObject
000000000000fae8 g     F .text	000000000000000c _utee_cryp_derive_key
000000000001558c g     F .text	000000000000006c mbedtls_mpi_free
000000000000ca80 g     F .text	0000000000000008 __GP11_TEE_MACInit
000000000000e300 g     F .text	000000000000018c __GP11_TEE_AsymmetricVerifyDigest
0000000000006768 g     F .text	000000000000006c get_cost_string_TA
0000000000006dc4 g     F .text	0000000000000088 gemm_tt_TA
000000000000fac4 g     F .text	000000000000000c _utee_cryp_obj_reset
000000000000a4d0 g     F .text	0000000000000008 TEE_CacheClean
000000000000f998 g     F .text	000000000000000c _utee_get_property_name_to_index
00000000000077f8 g     F .text	0000000000000050 raw_calloc
0000000000014b40 g     F .text	000000000000011c _base64_enc
0000000000019260 g     F .text	00000000000000fc mbedtls_mpi_safe_cond_swap
000000000000fb00 g     F .text	000000000000000c _utee_authenc_init
0000000000012a60 g     F .text	00000000000000f8 TEE_CopyObjectAttributes1
0000000000013180 g     F .text	0000000000000008 __GP11_TEE_RenamePersistentObject
00000000000091d4 g     F .text	000000000000001c strlen
00000000000117e4 g     F .text	0000000000000268 TEE_BigIntComputeExtendedGcd
00000000000067d4 g     F .text	00000000000000dc make_cost_layer_TA_new
0000000000005868 g     F .text	0000000000000014 swap_binary_TA
000000000000fb84 g     F .text	000000000000000c _utee_storage_alloc_enum
00000000000058e4 g     F .text	0000000000000068 scale_bias_TA
0000000000011610 g     F .text	00000000000001d4 TEE_BigIntExpMod
000000000000a120 g     F .text	0000000000000028 TEE_GetSystemTime
000000000000fb48 g     F .text	000000000000000c _utee_asymm_verify
0000000000003b78 g     F .text	00000000000000a8 resize_maxpool_layer_TA
0000000000000000 g     O .ta_head	0000000000000020 ta_head
0000000000007360 g     F .text	0000000000000284 brel
0000000000014190 g     F .text	00000000000000ec __GP11_TEE_GetPropertyAsBinaryBlock
0000000000004ba8 g     F .text	00000000000000f4 AES_CTR_xcrypt_buffer
00000000000162f8 g     F .text	000000000000015c mbedtls_mpi_sub_abs
0000000000017d94 g     F .text	0000000000000068 mbedtls_mpi_fill_random
00000000000068b0 g     F .text	00000000000000a0 forward_avgpool_layer_TA_new
00000000000124b4 g     F .text	00000000000000b4 __GP11_TEE_AllocateTransientObject
00000000000014ec g     F .text	00000000000000f8 forward_connected_layer_TA_new
0000000000002fb4 g     F .text	00000000000001bc gradient_TA
000000000000a0e4 g     F .text	000000000000000c TEE_SetInstanceData
0000000000003dac g     F .text	00000000000000bc update_network_TA
000000000000d918 g     F .text	00000000000001a8 __GP11_TEE_AsymmetricEncrypt
000000000000f9c8 g     F .text	000000000000000c _utee_get_cancellation_flag
00000000000171a8 g     F .text	0000000000000270 mbedtls_mpi_write_string
0000000000007998 g     F .text	0000000000000018 aligned_alloc
0000000000006e4c g     F .text	00000000000000a8 gemm_cpu_TA
00000000000132b8 g     F .text	000000000000011c TEE_GetNextPersistentObject
0000000000011ae8 g     F .text	0000000000000008 TEE_BigIntInitFMMContext1
000000000000cde4 g     F .text	000000000000000c __GP11_TEE_MACCompareFinal
00000000000136d8 g     F .text	0000000000000008 __GP11_TEE_WriteObjectData
0000000000006af4 g     F .text	0000000000000144 col2im_cpu_TA
00000000000097d8 g     F .text	0000000000000028 TEE_CloseTASession
000000000000e174 g     F .text	000000000000018c TEE_AsymmetricVerifyDigest
000000000000fb60 g     F .text	000000000000000c _utee_storage_obj_create
0000000000011b00 g     F .text	0000000000000018 __GP11_TEE_BigIntFMMSizeInU32
00000000000079b0 g     F .text	0000000000000010 free
000000000000cb30 g     F .text	0000000000000110 TEE_MACComputeFinal
0000000000025b40 g     O .bss	0000000000000008 mbedtls_mpi_mempool
000000000000fa58 g     F .text	000000000000000c _utee_hash_final



Disassembly of section .text:

0000000000000020 <memcpy>:
memcpy():
/home/avees/Linux_for_Tegra/sources/tegra/optee-src/nv-optee/optee/optee_os/lib/libutils/isoc/newlib/memcpy.c:106
      20:	f1007c5f 	cmp	x2, #0x1f
      24:	54000629 	b.ls	e8 <memcpy+0xc8>  // b.plast
/home/avees/Linux_for_Tegra/sources/tegra/optee-src/nv-optee/optee/optee_os/lib/libutils/isoc/newlib/memcpy.c:106 (discriminator 1)
      28:	aa000025 	orr	x5, x1, x0
      2c:	f24008a5 	ands	x5, x5, #0x7
      30:	54000641 	b.ne	f8 <memcpy+0xd8>  // b.any
      34:	d1008048 	sub	x8, x2, #0x20
/home/avees/Linux_for_Tegra/sources/tegra/optee-src/nv-optee/optee/optee_os/lib/libutils/isoc/newlib/memcpy.c:108
      38:	aa0103e4 	mov	x4, x1
      3c:	927be908 	and	x8, x8, #0xffffffffffffffe0
/home/avees/Linux_for_Tegra/sources/tegra/optee-src/nv-optee/optee/optee_os/lib/libutils/isoc/newlib/memcpy.c:107
      40:	aa0003e3 	mov	x3, x0
      44:	91008108 	add	x8, x8, #0x20
      48:	8b080007 	add	x7, x0, x8
      4c:	d503201f 	nop
/home/avees/Linux_for_Tegra/sources/tegra/optee-src/nv-optee/optee/optee_os/lib/libutils/isoc/newlib/memcpy.c:112
      50:	f9400086 	ldr	x6, [x4]
      54:	f9000066 	str	x6, [x3]
/home/avees/Linux_for_Tegra/sources/tegra/optee-src/nv-optee/optee/optee_os/lib/libutils/isoc/newlib/memcpy.c:113
      58:	91008084 	add	x4, x4, #0x20
      5c:	91008063 	add	x3, x3, #0x20
      60:	f85e8086 	ldur	x6, [x4, #-24]
      64:	f81e8066 	stur	x6, [x3, #-24]
/home/avees/Linux_for_Tegra/sources/tegra/optee-src/nv-optee/optee/optee_os/lib/libutils/isoc/newlib/memcpy.c:114
      68:	f85f0086 	ldur	x6, [x4, #-16]
      6c:	f81f0066 	stur	x6, [x3, #-16]
/home/avees/Linux_for_Tegra/sources/tegra/optee-src/nv-optee/optee/optee_os/lib/libutils/isoc/newlib/memcpy.c:111
      70:	eb0300ff 	cmp	x7, x3
/home/avees/Linux_for_Tegra/sources/tegra/optee-src/nv-optee/optee/optee_os/lib/libutils/isoc/newlib/memcpy.c:115
      74:	f85f8086 	ldur	x6, [x4, #-8]
      78:	f81f8066 	stur	x6, [x3, #-8]
/home/avees/Linux_for_Tegra/sources/tegra/optee-src/nv-optee/optee/optee_os/lib/libutils/isoc/newlib/memcpy.c:111
      7c:	54fffea1 	b.ne	50 <memcpy+0x30>  // b.any
      80:	8b080021 	add	x1, x1, x8
/home/avees/Linux_for_Tegra/sources/tegra/optee-src/nv-optee/optee/optee_os/lib/libutils/isoc/newlib/memcpy.c:120
      84:	f27d045f 	tst	x2, #0x18
      88:	92401044 	and	x4, x2, #0x1f
      8c:	540003c0 	b.eq	104 <memcpy+0xe4>  // b.none
/home/avees/Linux_for_Tegra/sources/tegra/optee-src/nv-optee/optee/optee_os/lib/libutils/isoc/newlib/memcpy.c:121
      90:	f8656826 	ldr	x6, [x1, x5]
      94:	f8256866 	str	x6, [x3, x5]
/home/avees/Linux_for_Tegra/sources/tegra/optee-src/nv-optee/optee/optee_os/lib/libutils/isoc/newlib/memcpy.c:120
      98:	910020a5 	add	x5, x5, #0x8
      9c:	cb050086 	sub	x6, x4, x5
      a0:	f1001cdf 	cmp	x6, #0x7
      a4:	54ffff68 	b.hi	90 <memcpy+0x70>  // b.pmore
      a8:	d1002084 	sub	x4, x4, #0x8
      ac:	92400842 	and	x2, x2, #0x7
      b0:	927df084 	and	x4, x4, #0xfffffffffffffff8
/home/avees/Linux_for_Tegra/sources/tegra/optee-src/nv-optee/optee/optee_os/lib/libutils/isoc/newlib/memcpy.c:130
      b4:	d1000446 	sub	x6, x2, #0x1
      b8:	91002084 	add	x4, x4, #0x8
      bc:	8b040063 	add	x3, x3, x4
      c0:	8b040021 	add	x1, x1, x4
      c4:	b4000102 	cbz	x2, e4 <memcpy+0xc4>
/home/avees/Linux_for_Tegra/sources/tegra/optee-src/nv-optee/optee/optee_os/lib/libutils/isoc/newlib/memcpy.c:99
      c8:	d2800002 	mov	x2, #0x0                   	// #0
      cc:	d503201f 	nop
/home/avees/Linux_for_Tegra/sources/tegra/optee-src/nv-optee/optee/optee_os/lib/libutils/isoc/newlib/memcpy.c:131
      d0:	38626825 	ldrb	w5, [x1, x2]
/home/avees/Linux_for_Tegra/sources/tegra/optee-src/nv-optee/optee/optee_os/lib/libutils/isoc/newlib/memcpy.c:130
      d4:	eb0200df 	cmp	x6, x2
/home/avees/Linux_for_Tegra/sources/tegra/optee-src/nv-optee/optee/optee_os/lib/libutils/isoc/newlib/memcpy.c:131
      d8:	38226865 	strb	w5, [x3, x2]
/home/avees/Linux_for_Tegra/sources/tegra/optee-src/nv-optee/optee/optee_os/lib/libutils/isoc/newlib/memcpy.c:130
      dc:	91000442 	add	x2, x2, #0x1
      e0:	54ffff81 	b.ne	d0 <memcpy+0xb0>  // b.any
/home/avees/Linux_for_Tegra/sources/tegra/optee-src/nv-optee/optee/optee_os/lib/libutils/isoc/newlib/memcpy.c:135
      e4:	d65f03c0 	ret
/home/avees/Linux_for_Tegra/sources/tegra/optee-src/nv-optee/optee/optee_os/lib/libutils/isoc/newlib/memcpy.c:99
      e8:	aa0003e3 	mov	x3, x0
/home/avees/Linux_for_Tegra/sources/tegra/optee-src/nv-optee/optee/optee_os/lib/libutils/isoc/newlib/memcpy.c:130
      ec:	d1000446 	sub	x6, x2, #0x1
      f0:	b5fffec2 	cbnz	x2, c8 <memcpy+0xa8>
/home/avees/Linux_for_Tegra/sources/tegra/optee-src/nv-optee/optee/optee_os/lib/libutils/isoc/newlib/memcpy.c:135
      f4:	d65f03c0 	ret
/home/avees/Linux_for_Tegra/sources/tegra/optee-src/nv-optee/optee/optee_os/lib/libutils/isoc/newlib/memcpy.c:130
      f8:	d1000446 	sub	x6, x2, #0x1
/home/avees/Linux_for_Tegra/sources/tegra/optee-src/nv-optee/optee/optee_os/lib/libutils/isoc/newlib/memcpy.c:99
      fc:	aa0003e3 	mov	x3, x0
     100:	17fffff2 	b	c8 <memcpy+0xa8>
/home/avees/Linux_for_Tegra/sources/tegra/optee-src/nv-optee/optee/optee_os/lib/libutils/isoc/newlib/memcpy.c:120
     104:	aa0403e2 	mov	x2, x4
     108:	17fffff9 	b	ec <memcpy+0xcc>

000000000000010c <make_convolutional_layer_TA_params>:
make_convolutional_layer_TA_params():
/home/avees/tee/darknetz/ta/darknetp_ta.c:198
     10c:	d11583ff 	sub	sp, sp, #0x560
     110:	aa0103e8 	mov	x8, x1
     114:	b0000101 	adrp	x1, 21000 <_DYNAMIC>
/home/avees/tee/darknetz/ta/darknetp_ta.c:205
     118:	7114541f 	cmp	w0, #0x515
/home/avees/tee/darknetz/ta/darknetp_ta.c:198
     11c:	a9047bfd 	stp	x29, x30, [sp, #64]
     120:	910103fd 	add	x29, sp, #0x40
     124:	f940b422 	ldr	x2, [x1, #360]
     128:	a90553f3 	stp	x19, x20, [sp, #80]
     12c:	aa0103f3 	mov	x19, x1
     130:	f9400043 	ldr	x3, [x2]
     134:	f902afe3 	str	x3, [sp, #1368]
     138:	d2800003 	mov	x3, #0x0                   	// #0
     13c:	a9065bf5 	stp	x21, x22, [sp, #96]
     140:	a90763f7 	stp	x23, x24, [sp, #112]
     144:	a9086bf9 	stp	x25, x26, [sp, #128]
     148:	a90973fb 	stp	x27, x28, [sp, #144]
     14c:	fd0053e8 	str	d8, [sp, #160]
/home/avees/tee/darknetz/ta/darknetp_ta.c:205
     150:	540007e1 	b.ne	24c <make_convolutional_layer_TA_params+0x140>  // b.any
/home/avees/tee/darknetz/ta/darknetp_ta.c:208
     154:	f9400100 	ldr	x0, [x8]
/home/avees/tee/darknetz/ta/darknetp_ta.c:209
     158:	bd401108 	ldr	s8, [x8, #16]
/home/avees/tee/darknetz/ta/darknetp_ta.c:213
     15c:	29405414 	ldp	w20, w21, [x0]
/home/avees/tee/darknetz/ta/darknetp_ta.c:209
     160:	7e21d908 	ucvtf	s8, s8
/home/avees/tee/darknetz/ta/darknetp_ta.c:221
     164:	29440417 	ldp	w23, w1, [x0, #32]
     168:	b900cfe1 	str	w1, [sp, #204]
/home/avees/tee/darknetz/ta/darknetp_ta.c:215
     16c:	29416016 	ldp	w22, w24, [x0, #8]
/home/avees/tee/darknetz/ta/darknetp_ta.c:217
     170:	29426819 	ldp	w25, w26, [x0, #16]
/home/avees/tee/darknetz/ta/darknetp_ta.c:219
     174:	2943701b 	ldp	w27, w28, [x0, #24]
/home/avees/tee/darknetz/ta/darknetp_ta.c:223
     178:	29450c02 	ldp	w2, w3, [x0, #40]
/home/avees/tee/darknetz/ta/darknetp_ta.c:222
     17c:	29188be3 	stp	w3, w2, [sp, #196]
/home/avees/tee/darknetz/ta/darknetp_ta.c:225
     180:	29461404 	ldp	w4, w5, [x0, #48]
/home/avees/tee/darknetz/ta/darknetp_ta.c:224
     184:	291793e5 	stp	w5, w4, [sp, #188]
/home/avees/tee/darknetz/ta/darknetp_ta.c:229
     188:	f9401100 	ldr	x0, [x8, #32]
     18c:	94000a61 	bl	2b10 <get_activation_TA>
/home/avees/tee/darknetz/ta/darknetp_ta.c:231
     190:	1e204100 	fmov	s0, s8
     194:	295793e5 	ldp	w5, w4, [sp, #188]
     198:	b90003f7 	str	w23, [sp]
     19c:	29588be3 	ldp	w3, w2, [sp, #196]
     1a0:	b9000be0 	str	w0, [sp, #8]
     1a4:	b940cfe1 	ldr	w1, [sp, #204]
     1a8:	910343f7 	add	x23, sp, #0xd0
     1ac:	b90013e1 	str	w1, [sp, #16]
     1b0:	2a1403e0 	mov	w0, w20
     1b4:	b9001be2 	str	w2, [sp, #24]
     1b8:	2a1503e1 	mov	w1, w21
     1bc:	b90023e3 	str	w3, [sp, #32]
     1c0:	2a1603e2 	mov	w2, w22
     1c4:	b9002be4 	str	w4, [sp, #40]
     1c8:	2a1c03e7 	mov	w7, w28
     1cc:	b90033e5 	str	w5, [sp, #48]
     1d0:	2a1b03e6 	mov	w6, w27
     1d4:	aa1703e8 	mov	x8, x23
     1d8:	2a1a03e5 	mov	w5, w26
     1dc:	2a1903e4 	mov	w4, w25
     1e0:	2a1803e3 	mov	w3, w24
     1e4:	94001790 	bl	6024 <make_convolutional_layer_TA_new>
/home/avees/tee/darknetz/ta/darknetp_ta.c:232
     1e8:	f9411260 	ldr	x0, [x19, #544]
     1ec:	52809103 	mov	w3, #0x488                 	// #1160
     1f0:	f9410e75 	ldr	x21, [x19, #536]
     1f4:	aa1703e1 	mov	x1, x23
     1f8:	b9400014 	ldr	w20, [x0]
     1fc:	d2809102 	mov	x2, #0x488                 	// #1160
/home/avees/tee/darknetz/ta/darknetp_ta.c:231
     200:	f942abf6 	ldr	x22, [sp, #1360]
/home/avees/tee/darknetz/ta/darknetp_ta.c:232
     204:	f94012a0 	ldr	x0, [x21, #32]
     208:	9b230280 	smaddl	x0, w20, w3, x0
     20c:	97ffff85 	bl	20 <memcpy>
/home/avees/tee/darknetz/ta/darknetp_ta.c:233
     210:	f9408aa0 	ldr	x0, [x21, #272]
     214:	eb0002df 	cmp	x22, x0
     218:	54000049 	b.ls	220 <make_convolutional_layer_TA_params+0x114>  // b.plast
/home/avees/tee/darknetz/ta/darknetp_ta.c:233 (discriminator 1)
     21c:	f9008ab6 	str	x22, [x21, #272]
/home/avees/tee/darknetz/ta/darknetp_ta.c:234
     220:	f9411260 	ldr	x0, [x19, #544]
     224:	11000694 	add	w20, w20, #0x1
     228:	b9000014 	str	w20, [x0]
/home/avees/tee/darknetz/ta/darknetp_ta.c:236
     22c:	52800000 	mov	w0, #0x0                   	// #0
/home/avees/tee/darknetz/ta/darknetp_ta.c:237
     230:	f940b673 	ldr	x19, [x19, #360]
     234:	f942afe1 	ldr	x1, [sp, #1368]
     238:	f9400262 	ldr	x2, [x19]
     23c:	eb020021 	subs	x1, x1, x2
     240:	d2800002 	mov	x2, #0x0                   	// #0
     244:	54000080 	b.eq	254 <make_convolutional_layer_TA_params+0x148>  // b.none
     248:	94001eb6 	bl	7d20 <__stack_chk_fail>
/home/avees/tee/darknetz/ta/darknetp_ta.c:206
     24c:	129fff20 	mov	w0, #0xffff0006            	// #-65530
     250:	17fffff8 	b	230 <make_convolutional_layer_TA_params+0x124>
/home/avees/tee/darknetz/ta/darknetp_ta.c:237
     254:	a9447bfd 	ldp	x29, x30, [sp, #64]
     258:	a94553f3 	ldp	x19, x20, [sp, #80]
     25c:	a9465bf5 	ldp	x21, x22, [sp, #96]
     260:	a94763f7 	ldp	x23, x24, [sp, #112]
     264:	a9486bf9 	ldp	x25, x26, [sp, #128]
     268:	a94973fb 	ldp	x27, x28, [sp, #144]
     26c:	fd4053e8 	ldr	d8, [sp, #160]
     270:	911583ff 	add	sp, sp, #0x560
     274:	d65f03c0 	ret

0000000000000278 <make_dropout_layer_TA_params>:
make_dropout_layer_TA_params():
/home/avees/tee/darknetz/ta/darknetp_ta.c:297
     278:	d11343ff 	sub	sp, sp, #0x4d0
     27c:	b0000102 	adrp	x2, 21000 <_DYNAMIC>
     280:	a9007bfd 	stp	x29, x30, [sp]
     284:	910003fd 	mov	x29, sp
     288:	f940b443 	ldr	x3, [x2, #360]
     28c:	a90153f3 	stp	x19, x20, [sp, #16]
     290:	aa0203f3 	mov	x19, x2
     294:	f9400064 	ldr	x4, [x3]
     298:	f90267e4 	str	x4, [sp, #1224]
     29c:	d2800004 	mov	x4, #0x0                   	// #0
     2a0:	a9025bf5 	stp	x21, x22, [sp, #32]
/home/avees/tee/darknetz/ta/darknetp_ta.c:304
     2a4:	528aaaa3 	mov	w3, #0x5555                	// #21845
/home/avees/tee/darknetz/ta/darknetp_ta.c:297
     2a8:	a90363f7 	stp	x23, x24, [sp, #48]
/home/avees/tee/darknetz/ta/darknetp_ta.c:304
     2ac:	6b03001f 	cmp	w0, w3
     2b0:	54000781 	b.ne	3a0 <make_dropout_layer_TA_params+0x128>  // b.any
/home/avees/tee/darknetz/ta/darknetp_ta.c:307
     2b4:	aa0103e2 	mov	x2, x1
/home/avees/tee/darknetz/ta/darknetp_ta.c:325
     2b8:	910103f6 	add	x22, sp, #0x40
     2bc:	f9411274 	ldr	x20, [x19, #544]
     2c0:	aa1603e8 	mov	x8, x22
/home/avees/tee/darknetz/ta/darknetp_ta.c:307
     2c4:	f8420440 	ldr	x0, [x2], #32
/home/avees/tee/darknetz/ta/darknetp_ta.c:309
     2c8:	f9401037 	ldr	x23, [x1, #32]
/home/avees/tee/darknetz/ta/darknetp_ta.c:310
     2cc:	f9401838 	ldr	x24, [x1, #48]
/home/avees/tee/darknetz/ta/darknetp_ta.c:320
     2d0:	f9400821 	ldr	x1, [x1, #16]
/home/avees/tee/darknetz/ta/darknetp_ta.c:325
     2d4:	29419003 	ldp	w3, w4, [x0, #12]
     2d8:	b9400285 	ldr	w5, [x20]
     2dc:	bd400020 	ldr	s0, [x1]
     2e0:	b9400401 	ldr	w1, [x0, #4]
/home/avees/tee/darknetz/ta/darknetp_ta.c:311
     2e4:	f9400455 	ldr	x21, [x2, #8]
/home/avees/tee/darknetz/ta/darknetp_ta.c:325
     2e8:	b9400802 	ldr	w2, [x0, #8]
     2ec:	b9400000 	ldr	w0, [x0]
     2f0:	940014b9 	bl	55d4 <make_dropout_layer_TA_new>
/home/avees/tee/darknetz/ta/darknetp_ta.c:327
     2f4:	b9400294 	ldr	w20, [x20]
     2f8:	35000434 	cbnz	w20, 37c <make_dropout_layer_TA_params+0x104>
/home/avees/tee/darknetz/ta/darknetp_ta.c:325
     2fc:	f94147e3 	ldr	x3, [sp, #648]
/home/avees/tee/darknetz/ta/darknetp_ta.c:311
     300:	d34286b5 	ubfx	x21, x21, #2, #32
/home/avees/tee/darknetz/ta/darknetp_ta.c:325
     304:	f9414be1 	ldr	x1, [sp, #656]
     308:	d2800000 	mov	x0, #0x0                   	// #0
/home/avees/tee/darknetz/ta/darknetp_ta.c:328 (discriminator 1)
     30c:	6b0002bf 	cmp	w21, w0
     310:	540002ac 	b.gt	364 <make_dropout_layer_TA_params+0xec>
/home/avees/tee/darknetz/ta/darknetp_ta.c:337
     314:	f9410e60 	ldr	x0, [x19, #536]
     318:	f90147e3 	str	x3, [sp, #648]
     31c:	52809103 	mov	w3, #0x488                 	// #1160
     320:	d2809102 	mov	x2, #0x488                 	// #1160
     324:	f9014be1 	str	x1, [sp, #656]
     328:	aa1603e1 	mov	x1, x22
     32c:	f9401000 	ldr	x0, [x0, #32]
     330:	9b230280 	smaddl	x0, w20, w3, x0
/home/avees/tee/darknetz/ta/darknetp_ta.c:338
     334:	11000694 	add	w20, w20, #0x1
/home/avees/tee/darknetz/ta/darknetp_ta.c:337
     338:	97ffff3a 	bl	20 <memcpy>
/home/avees/tee/darknetz/ta/darknetp_ta.c:338
     33c:	f9411260 	ldr	x0, [x19, #544]
     340:	b9000014 	str	w20, [x0]
/home/avees/tee/darknetz/ta/darknetp_ta.c:340
     344:	52800000 	mov	w0, #0x0                   	// #0
/home/avees/tee/darknetz/ta/darknetp_ta.c:341
     348:	f940b673 	ldr	x19, [x19, #360]
     34c:	f94267e1 	ldr	x1, [sp, #1224]
     350:	f9400262 	ldr	x2, [x19]
     354:	eb020021 	subs	x1, x1, x2
     358:	d2800002 	mov	x2, #0x0                   	// #0
     35c:	54000260 	b.eq	3a8 <make_dropout_layer_TA_params+0x130>  // b.none
     360:	94001e70 	bl	7d20 <__stack_chk_fail>
/home/avees/tee/darknetz/ta/darknetp_ta.c:329 (discriminator 3)
     364:	bc607ae0 	ldr	s0, [x23, x0, lsl #2]
     368:	bc207820 	str	s0, [x1, x0, lsl #2]
/home/avees/tee/darknetz/ta/darknetp_ta.c:330 (discriminator 3)
     36c:	bc607b00 	ldr	s0, [x24, x0, lsl #2]
     370:	bc207860 	str	s0, [x3, x0, lsl #2]
/home/avees/tee/darknetz/ta/darknetp_ta.c:328 (discriminator 3)
     374:	91000400 	add	x0, x0, #0x1
     378:	17ffffe5 	b	30c <make_dropout_layer_TA_params+0x94>
/home/avees/tee/darknetz/ta/darknetp_ta.c:333
     37c:	f9410e62 	ldr	x2, [x19, #536]
     380:	52809100 	mov	w0, #0x488                 	// #1160
     384:	928090e1 	mov	x1, #0xfffffffffffffb78    	// #-1160
     388:	9b200681 	smaddl	x1, w20, w0, x1
     38c:	f9401040 	ldr	x0, [x2, #32]
     390:	8b010000 	add	x0, x0, x1
/home/avees/tee/darknetz/ta/darknetp_ta.c:334
     394:	f9412403 	ldr	x3, [x0, #584]
/home/avees/tee/darknetz/ta/darknetp_ta.c:333
     398:	f9412801 	ldr	x1, [x0, #592]
/home/avees/tee/darknetz/ta/darknetp_ta.c:334
     39c:	17ffffde 	b	314 <make_dropout_layer_TA_params+0x9c>
/home/avees/tee/darknetz/ta/darknetp_ta.c:305
     3a0:	129fff20 	mov	w0, #0xffff0006            	// #-65530
     3a4:	17ffffe9 	b	348 <make_dropout_layer_TA_params+0xd0>
/home/avees/tee/darknetz/ta/darknetp_ta.c:341
     3a8:	a9407bfd 	ldp	x29, x30, [sp]
     3ac:	a94153f3 	ldp	x19, x20, [sp, #16]
     3b0:	a9425bf5 	ldp	x21, x22, [sp, #32]
     3b4:	a94363f7 	ldp	x23, x24, [sp, #48]
     3b8:	911343ff 	add	sp, sp, #0x4d0
     3bc:	d65f03c0 	ret

00000000000003c0 <make_connected_layer_TA_params>:
make_connected_layer_TA_params():
/home/avees/tee/darknetz/ta/darknetp_ta.c:346
     3c0:	d11383ff 	sub	sp, sp, #0x4e0
     3c4:	aa0103e3 	mov	x3, x1
     3c8:	b0000101 	adrp	x1, 21000 <_DYNAMIC>
/home/avees/tee/darknetz/ta/darknetp_ta.c:354
     3cc:	7101541f 	cmp	w0, #0x55
/home/avees/tee/darknetz/ta/darknetp_ta.c:346
     3d0:	a9007bfd 	stp	x29, x30, [sp]
     3d4:	910003fd 	mov	x29, sp
     3d8:	f940b422 	ldr	x2, [x1, #360]
     3dc:	a90153f3 	stp	x19, x20, [sp, #16]
     3e0:	aa0103f3 	mov	x19, x1
     3e4:	f9400044 	ldr	x4, [x2]
     3e8:	f9026fe4 	str	x4, [sp, #1240]
     3ec:	d2800004 	mov	x4, #0x0                   	// #0
     3f0:	a9025bf5 	stp	x21, x22, [sp, #32]
     3f4:	a90363f7 	stp	x23, x24, [sp, #48]
     3f8:	f90023f9 	str	x25, [sp, #64]
/home/avees/tee/darknetz/ta/darknetp_ta.c:354
     3fc:	54000461 	b.ne	488 <make_connected_layer_TA_params+0xc8>  // b.any
/home/avees/tee/darknetz/ta/darknetp_ta.c:358
     400:	f9400060 	ldr	x0, [x3]
/home/avees/tee/darknetz/ta/darknetp_ta.c:369
     404:	910143f6 	add	x22, sp, #0x50
/home/avees/tee/darknetz/ta/darknetp_ta.c:360
     408:	29405414 	ldp	w20, w21, [x0]
/home/avees/tee/darknetz/ta/darknetp_ta.c:362
     40c:	29416017 	ldp	w23, w24, [x0, #8]
/home/avees/tee/darknetz/ta/darknetp_ta.c:363
     410:	b9401019 	ldr	w25, [x0, #16]
/home/avees/tee/darknetz/ta/darknetp_ta.c:367
     414:	f9400860 	ldr	x0, [x3, #16]
     418:	940009be 	bl	2b10 <get_activation_TA>
/home/avees/tee/darknetz/ta/darknetp_ta.c:369
     41c:	2a0003e3 	mov	w3, w0
     420:	2a1503e1 	mov	w1, w21
     424:	2a1403e0 	mov	w0, w20
     428:	aa1603e8 	mov	x8, x22
     42c:	2a1903e5 	mov	w5, w25
     430:	2a1803e4 	mov	w4, w24
     434:	2a1703e2 	mov	w2, w23
     438:	94000502 	bl	1840 <make_connected_layer_TA_new>
/home/avees/tee/darknetz/ta/darknetp_ta.c:370
     43c:	f9410e60 	ldr	x0, [x19, #536]
     440:	52809103 	mov	w3, #0x488                 	// #1160
     444:	f9411275 	ldr	x21, [x19, #544]
     448:	aa1603e1 	mov	x1, x22
     44c:	f9401000 	ldr	x0, [x0, #32]
     450:	d2809102 	mov	x2, #0x488                 	// #1160
     454:	b94002b4 	ldr	w20, [x21]
     458:	9b230280 	smaddl	x0, w20, w3, x0
/home/avees/tee/darknetz/ta/darknetp_ta.c:371
     45c:	11000694 	add	w20, w20, #0x1
/home/avees/tee/darknetz/ta/darknetp_ta.c:370
     460:	97fffef0 	bl	20 <memcpy>
/home/avees/tee/darknetz/ta/darknetp_ta.c:371
     464:	b90002b4 	str	w20, [x21]
/home/avees/tee/darknetz/ta/darknetp_ta.c:373
     468:	52800000 	mov	w0, #0x0                   	// #0
/home/avees/tee/darknetz/ta/darknetp_ta.c:374
     46c:	f940b673 	ldr	x19, [x19, #360]
     470:	f9426fe1 	ldr	x1, [sp, #1240]
     474:	f9400262 	ldr	x2, [x19]
     478:	eb020021 	subs	x1, x1, x2
     47c:	d2800002 	mov	x2, #0x0                   	// #0
     480:	54000080 	b.eq	490 <make_connected_layer_TA_params+0xd0>  // b.none
     484:	94001e27 	bl	7d20 <__stack_chk_fail>
/home/avees/tee/darknetz/ta/darknetp_ta.c:355
     488:	129fff20 	mov	w0, #0xffff0006            	// #-65530
     48c:	17fffff8 	b	46c <make_connected_layer_TA_params+0xac>
/home/avees/tee/darknetz/ta/darknetp_ta.c:374
     490:	a9407bfd 	ldp	x29, x30, [sp]
     494:	a94153f3 	ldp	x19, x20, [sp, #16]
     498:	a9425bf5 	ldp	x21, x22, [sp, #32]
     49c:	a94363f7 	ldp	x23, x24, [sp, #48]
     4a0:	f94023f9 	ldr	x25, [sp, #64]
     4a4:	911383ff 	add	sp, sp, #0x4e0
     4a8:	d65f03c0 	ret

00000000000004ac <make_softmax_layer_TA_params>:
make_softmax_layer_TA_params():
/home/avees/tee/darknetz/ta/darknetp_ta.c:378
     4ac:	d11303ff 	sub	sp, sp, #0x4c0
     4b0:	b0000102 	adrp	x2, 21000 <_DYNAMIC>
/home/avees/tee/darknetz/ta/darknetp_ta.c:386
     4b4:	7100541f 	cmp	w0, #0x15
/home/avees/tee/darknetz/ta/darknetp_ta.c:378
     4b8:	a9007bfd 	stp	x29, x30, [sp]
     4bc:	910003fd 	mov	x29, sp
     4c0:	f940b443 	ldr	x3, [x2, #360]
     4c4:	a90153f3 	stp	x19, x20, [sp, #16]
     4c8:	aa0203f3 	mov	x19, x2
     4cc:	f9400064 	ldr	x4, [x3]
     4d0:	f9025fe4 	str	x4, [sp, #1208]
     4d4:	d2800004 	mov	x4, #0x0                   	// #0
     4d8:	a9025bf5 	stp	x21, x22, [sp, #32]
/home/avees/tee/darknetz/ta/darknetp_ta.c:386
     4dc:	540003e1 	b.ne	558 <make_softmax_layer_TA_params+0xac>  // b.any
/home/avees/tee/darknetz/ta/darknetp_ta.c:389
     4e0:	f9400020 	ldr	x0, [x1]
/home/avees/tee/darknetz/ta/darknetp_ta.c:400
     4e4:	9100c3f6 	add	x22, sp, #0x30
/home/avees/tee/darknetz/ta/darknetp_ta.c:398
     4e8:	bd401020 	ldr	s0, [x1, #16]
/home/avees/tee/darknetz/ta/darknetp_ta.c:400
     4ec:	aa1603e8 	mov	x8, x22
     4f0:	29408801 	ldp	w1, w2, [x0, #4]
     4f4:	7e21d800 	ucvtf	s0, s0
     4f8:	29419003 	ldp	w3, w4, [x0, #12]
     4fc:	29429805 	ldp	w5, w6, [x0, #20]
     500:	b9401c07 	ldr	w7, [x0, #28]
     504:	b9400000 	ldr	w0, [x0]
     508:	94000356 	bl	1260 <make_softmax_layer_TA_new>
/home/avees/tee/darknetz/ta/darknetp_ta.c:401
     50c:	f9410e60 	ldr	x0, [x19, #536]
     510:	52809103 	mov	w3, #0x488                 	// #1160
     514:	f9411275 	ldr	x21, [x19, #544]
     518:	aa1603e1 	mov	x1, x22
     51c:	f9401000 	ldr	x0, [x0, #32]
     520:	d2809102 	mov	x2, #0x488                 	// #1160
     524:	b94002b4 	ldr	w20, [x21]
     528:	9b230280 	smaddl	x0, w20, w3, x0
/home/avees/tee/darknetz/ta/darknetp_ta.c:402
     52c:	11000694 	add	w20, w20, #0x1
/home/avees/tee/darknetz/ta/darknetp_ta.c:401
     530:	97fffebc 	bl	20 <memcpy>
/home/avees/tee/darknetz/ta/darknetp_ta.c:402
     534:	b90002b4 	str	w20, [x21]
/home/avees/tee/darknetz/ta/darknetp_ta.c:404
     538:	52800000 	mov	w0, #0x0                   	// #0
/home/avees/tee/darknetz/ta/darknetp_ta.c:405
     53c:	f940b673 	ldr	x19, [x19, #360]
     540:	f9425fe1 	ldr	x1, [sp, #1208]
     544:	f9400262 	ldr	x2, [x19]
     548:	eb020021 	subs	x1, x1, x2
     54c:	d2800002 	mov	x2, #0x0                   	// #0
     550:	54000080 	b.eq	560 <make_softmax_layer_TA_params+0xb4>  // b.none
     554:	94001df3 	bl	7d20 <__stack_chk_fail>
/home/avees/tee/darknetz/ta/darknetp_ta.c:387
     558:	129fff20 	mov	w0, #0xffff0006            	// #-65530
     55c:	17fffff8 	b	53c <make_softmax_layer_TA_params+0x90>
/home/avees/tee/darknetz/ta/darknetp_ta.c:405
     560:	a9407bfd 	ldp	x29, x30, [sp]
     564:	a94153f3 	ldp	x19, x20, [sp, #16]
     568:	a9425bf5 	ldp	x21, x22, [sp, #32]
     56c:	911303ff 	add	sp, sp, #0x4c0
     570:	d65f03c0 	ret

0000000000000574 <make_cost_layer_TA_params>:
make_cost_layer_TA_params():
/home/avees/tee/darknetz/ta/darknetp_ta.c:409
     574:	d113c3ff 	sub	sp, sp, #0x4f0
     578:	b0000102 	adrp	x2, 21000 <_DYNAMIC>
/home/avees/tee/darknetz/ta/darknetp_ta.c:417
     57c:	7115541f 	cmp	w0, #0x555
/home/avees/tee/darknetz/ta/darknetp_ta.c:409
     580:	a9007bfd 	stp	x29, x30, [sp]
     584:	910003fd 	mov	x29, sp
     588:	f940b443 	ldr	x3, [x2, #360]
     58c:	a90153f3 	stp	x19, x20, [sp, #16]
     590:	aa0203f3 	mov	x19, x2
     594:	f9400064 	ldr	x4, [x3]
     598:	f90277e4 	str	x4, [sp, #1256]
     59c:	d2800004 	mov	x4, #0x0                   	// #0
     5a0:	a9025bf5 	stp	x21, x22, [sp, #32]
     5a4:	a90363f7 	stp	x23, x24, [sp, #48]
     5a8:	6d0427e8 	stp	d8, d9, [sp, #64]
     5ac:	6d052fea 	stp	d10, d11, [sp, #80]
/home/avees/tee/darknetz/ta/darknetp_ta.c:417
     5b0:	54000541 	b.ne	658 <make_cost_layer_TA_params+0xe4>  // b.any
/home/avees/tee/darknetz/ta/darknetp_ta.c:420
     5b4:	f9400020 	ldr	x0, [x1]
/home/avees/tee/darknetz/ta/darknetp_ta.c:435
     5b8:	910183f8 	add	x24, sp, #0x60
/home/avees/tee/darknetz/ta/darknetp_ta.c:422
     5bc:	29405814 	ldp	w20, w22, [x0]
/home/avees/tee/darknetz/ta/darknetp_ta.c:424
     5c0:	f9400820 	ldr	x0, [x1, #16]
/home/avees/tee/darknetz/ta/darknetp_ta.c:426
     5c4:	2d402408 	ldp	s8, s9, [x0]
/home/avees/tee/darknetz/ta/darknetp_ta.c:428
     5c8:	2d412c0a 	ldp	s10, s11, [x0, #8]
/home/avees/tee/darknetz/ta/darknetp_ta.c:432
     5cc:	f9401020 	ldr	x0, [x1, #32]
     5d0:	9400182e 	bl	6688 <get_cost_type_TA>
/home/avees/tee/darknetz/ta/darknetp_ta.c:435
     5d4:	1e204163 	fmov	s3, s11
     5d8:	1e204142 	fmov	s2, s10
     5dc:	1e204121 	fmov	s1, s9
     5e0:	1e204100 	fmov	s0, s8
     5e4:	aa1803e8 	mov	x8, x24
     5e8:	2a0003e2 	mov	w2, w0
     5ec:	2a1603e1 	mov	w1, w22
     5f0:	2a1403e0 	mov	w0, w20
     5f4:	94001878 	bl	67d4 <make_cost_layer_TA_new>
/home/avees/tee/darknetz/ta/darknetp_ta.c:436
     5f8:	f9410e60 	ldr	x0, [x19, #536]
     5fc:	52809103 	mov	w3, #0x488                 	// #1160
     600:	f9411277 	ldr	x23, [x19, #544]
     604:	aa1803e1 	mov	x1, x24
     608:	f9401000 	ldr	x0, [x0, #32]
     60c:	d2809102 	mov	x2, #0x488                 	// #1160
     610:	b94002f5 	ldr	w21, [x23]
     614:	9b2302a0 	smaddl	x0, w21, w3, x0
/home/avees/tee/darknetz/ta/darknetp_ta.c:437
     618:	110006b5 	add	w21, w21, #0x1
/home/avees/tee/darknetz/ta/darknetp_ta.c:436
     61c:	97fffe81 	bl	20 <memcpy>
/home/avees/tee/darknetz/ta/darknetp_ta.c:437
     620:	b90002f5 	str	w21, [x23]
/home/avees/tee/darknetz/ta/darknetp_ta.c:440
     624:	1b167e80 	mul	w0, w20, w22
     628:	937e7c00 	sbfiz	x0, x0, #2, #32
     62c:	94001cc1 	bl	7930 <malloc>
     630:	f940a661 	ldr	x1, [x19, #328]
     634:	f9000020 	str	x0, [x1]
/home/avees/tee/darknetz/ta/darknetp_ta.c:443
     638:	52800000 	mov	w0, #0x0                   	// #0
/home/avees/tee/darknetz/ta/darknetp_ta.c:444
     63c:	f940b673 	ldr	x19, [x19, #360]
     640:	f94277e1 	ldr	x1, [sp, #1256]
     644:	f9400262 	ldr	x2, [x19]
     648:	eb020021 	subs	x1, x1, x2
     64c:	d2800002 	mov	x2, #0x0                   	// #0
     650:	54000080 	b.eq	660 <make_cost_layer_TA_params+0xec>  // b.none
     654:	94001db3 	bl	7d20 <__stack_chk_fail>
/home/avees/tee/darknetz/ta/darknetp_ta.c:418
     658:	129fff20 	mov	w0, #0xffff0006            	// #-65530
     65c:	17fffff8 	b	63c <make_cost_layer_TA_params+0xc8>
/home/avees/tee/darknetz/ta/darknetp_ta.c:444
     660:	a9407bfd 	ldp	x29, x30, [sp]
     664:	a94153f3 	ldp	x19, x20, [sp, #16]
     668:	a9425bf5 	ldp	x21, x22, [sp, #32]
     66c:	a94363f7 	ldp	x23, x24, [sp, #48]
     670:	6d4427e8 	ldp	d8, d9, [sp, #64]
     674:	6d452fea 	ldp	d10, d11, [sp, #80]
     678:	9113c3ff 	add	sp, sp, #0x4f0
     67c:	d65f03c0 	ret

0000000000000680 <make_maxpool_layer_TA_params.isra.0>:
make_maxpool_layer_TA_params():
/home/avees/tee/darknetz/ta/darknetp_ta.c:239
     680:	d11303ff 	sub	sp, sp, #0x4c0
     684:	b0000102 	adrp	x2, 21000 <_DYNAMIC>
/home/avees/tee/darknetz/ta/darknetp_ta.c:248
     688:	7100141f 	cmp	w0, #0x5
/home/avees/tee/darknetz/ta/darknetp_ta.c:239
     68c:	a9007bfd 	stp	x29, x30, [sp]
     690:	910003fd 	mov	x29, sp
     694:	f940b443 	ldr	x3, [x2, #360]
     698:	a90153f3 	stp	x19, x20, [sp, #16]
     69c:	aa0203f3 	mov	x19, x2
     6a0:	f9400064 	ldr	x4, [x3]
     6a4:	f9025fe4 	str	x4, [sp, #1208]
     6a8:	d2800004 	mov	x4, #0x0                   	// #0
     6ac:	a9025bf5 	stp	x21, x22, [sp, #32]
/home/avees/tee/darknetz/ta/darknetp_ta.c:248
     6b0:	54000381 	b.ne	720 <make_maxpool_layer_TA_params.isra.0+0xa0>  // b.any
/home/avees/tee/darknetz/ta/darknetp_ta.c:251
     6b4:	f9400020 	ldr	x0, [x1]
/home/avees/tee/darknetz/ta/darknetp_ta.c:261
     6b8:	9100c3f6 	add	x22, sp, #0x30
     6bc:	aa1603e8 	mov	x8, x22
     6c0:	29408801 	ldp	w1, w2, [x0, #4]
     6c4:	29419003 	ldp	w3, w4, [x0, #12]
     6c8:	29429805 	ldp	w5, w6, [x0, #20]
     6cc:	b9400000 	ldr	w0, [x0]
     6d0:	94000cde 	bl	3a48 <make_maxpool_layer_TA>
/home/avees/tee/darknetz/ta/darknetp_ta.c:262
     6d4:	f9410e60 	ldr	x0, [x19, #536]
     6d8:	52809103 	mov	w3, #0x488                 	// #1160
     6dc:	f9411275 	ldr	x21, [x19, #544]
     6e0:	aa1603e1 	mov	x1, x22
     6e4:	f9401000 	ldr	x0, [x0, #32]
     6e8:	d2809102 	mov	x2, #0x488                 	// #1160
     6ec:	b94002b4 	ldr	w20, [x21]
     6f0:	9b230280 	smaddl	x0, w20, w3, x0
/home/avees/tee/darknetz/ta/darknetp_ta.c:263
     6f4:	11000694 	add	w20, w20, #0x1
/home/avees/tee/darknetz/ta/darknetp_ta.c:262
     6f8:	97fffe4a 	bl	20 <memcpy>
/home/avees/tee/darknetz/ta/darknetp_ta.c:263
     6fc:	b90002b4 	str	w20, [x21]
/home/avees/tee/darknetz/ta/darknetp_ta.c:265
     700:	52800000 	mov	w0, #0x0                   	// #0
/home/avees/tee/darknetz/ta/darknetp_ta.c:266
     704:	f940b673 	ldr	x19, [x19, #360]
     708:	f9425fe1 	ldr	x1, [sp, #1208]
     70c:	f9400262 	ldr	x2, [x19]
     710:	eb020021 	subs	x1, x1, x2
     714:	d2800002 	mov	x2, #0x0                   	// #0
     718:	54000080 	b.eq	728 <make_maxpool_layer_TA_params.isra.0+0xa8>  // b.none
     71c:	94001d81 	bl	7d20 <__stack_chk_fail>
/home/avees/tee/darknetz/ta/darknetp_ta.c:249
     720:	129fff20 	mov	w0, #0xffff0006            	// #-65530
     724:	17fffff8 	b	704 <make_maxpool_layer_TA_params.isra.0+0x84>
/home/avees/tee/darknetz/ta/darknetp_ta.c:266
     728:	a9407bfd 	ldp	x29, x30, [sp]
     72c:	a94153f3 	ldp	x19, x20, [sp, #16]
     730:	a9425bf5 	ldp	x21, x22, [sp, #32]
     734:	911303ff 	add	sp, sp, #0x4c0
     738:	d65f03c0 	ret

000000000000073c <make_avgpool_layer_TA_params.isra.0>:
make_avgpool_layer_TA_params():
/home/avees/tee/darknetz/ta/darknetp_ta.c:269
     73c:	d11303ff 	sub	sp, sp, #0x4c0
     740:	b0000102 	adrp	x2, 21000 <_DYNAMIC>
/home/avees/tee/darknetz/ta/darknetp_ta.c:278
     744:	7100141f 	cmp	w0, #0x5
/home/avees/tee/darknetz/ta/darknetp_ta.c:269
     748:	a9007bfd 	stp	x29, x30, [sp]
     74c:	910003fd 	mov	x29, sp
     750:	f940b443 	ldr	x3, [x2, #360]
     754:	a90153f3 	stp	x19, x20, [sp, #16]
     758:	aa0203f3 	mov	x19, x2
     75c:	f9400064 	ldr	x4, [x3]
     760:	f9025fe4 	str	x4, [sp, #1208]
     764:	d2800004 	mov	x4, #0x0                   	// #0
     768:	a9025bf5 	stp	x21, x22, [sp, #32]
/home/avees/tee/darknetz/ta/darknetp_ta.c:278
     76c:	54000361 	b.ne	7d8 <make_avgpool_layer_TA_params.isra.0+0x9c>  // b.any
/home/avees/tee/darknetz/ta/darknetp_ta.c:281
     770:	f9400020 	ldr	x0, [x1]
/home/avees/tee/darknetz/ta/darknetp_ta.c:288
     774:	9100c3f6 	add	x22, sp, #0x30
     778:	aa1603e8 	mov	x8, x22
     77c:	29408801 	ldp	w1, w2, [x0, #4]
     780:	b9400c03 	ldr	w3, [x0, #12]
     784:	b9400000 	ldr	w0, [x0]
     788:	94001897 	bl	69e4 <make_avgpool_layer_TA>
/home/avees/tee/darknetz/ta/darknetp_ta.c:289
     78c:	f9410e60 	ldr	x0, [x19, #536]
     790:	52809103 	mov	w3, #0x488                 	// #1160
     794:	f9411275 	ldr	x21, [x19, #544]
     798:	aa1603e1 	mov	x1, x22
     79c:	f9401000 	ldr	x0, [x0, #32]
     7a0:	d2809102 	mov	x2, #0x488                 	// #1160
     7a4:	b94002b4 	ldr	w20, [x21]
     7a8:	9b230280 	smaddl	x0, w20, w3, x0
/home/avees/tee/darknetz/ta/darknetp_ta.c:290
     7ac:	11000694 	add	w20, w20, #0x1
/home/avees/tee/darknetz/ta/darknetp_ta.c:289
     7b0:	97fffe1c 	bl	20 <memcpy>
/home/avees/tee/darknetz/ta/darknetp_ta.c:290
     7b4:	b90002b4 	str	w20, [x21]
/home/avees/tee/darknetz/ta/darknetp_ta.c:292
     7b8:	52800000 	mov	w0, #0x0                   	// #0
/home/avees/tee/darknetz/ta/darknetp_ta.c:293
     7bc:	f940b673 	ldr	x19, [x19, #360]
     7c0:	f9425fe1 	ldr	x1, [sp, #1208]
     7c4:	f9400262 	ldr	x2, [x19]
     7c8:	eb020021 	subs	x1, x1, x2
     7cc:	d2800002 	mov	x2, #0x0                   	// #0
     7d0:	54000080 	b.eq	7e0 <make_avgpool_layer_TA_params.isra.0+0xa4>  // b.none
     7d4:	94001d53 	bl	7d20 <__stack_chk_fail>
/home/avees/tee/darknetz/ta/darknetp_ta.c:279
     7d8:	129fff20 	mov	w0, #0xffff0006            	// #-65530
     7dc:	17fffff8 	b	7bc <make_avgpool_layer_TA_params.isra.0+0x80>
/home/avees/tee/darknetz/ta/darknetp_ta.c:293
     7e0:	a9407bfd 	ldp	x29, x30, [sp]
     7e4:	a94153f3 	ldp	x19, x20, [sp, #16]
     7e8:	a9425bf5 	ldp	x21, x22, [sp, #32]
     7ec:	911303ff 	add	sp, sp, #0x4c0
     7f0:	d65f03c0 	ret

00000000000007f4 <summary_array>:
summary_array():
/home/avees/tee/darknetz/ta/darknetp_ta.c:46
     7f4:	d10343ff 	sub	sp, sp, #0xd0
     7f8:	b0000103 	adrp	x3, 21000 <_DYNAMIC>
/home/avees/tee/darknetz/ta/darknetp_ta.c:64
     7fc:	1e2e1000 	fmov	s0, #1.000000000000000000e+00
/home/avees/tee/darknetz/ta/darknetp_ta.c:46
     800:	a9017bfd 	stp	x29, x30, [sp, #16]
     804:	910043fd 	add	x29, sp, #0x10
     808:	f940b463 	ldr	x3, [x3, #360]
     80c:	6d0527e8 	stp	d8, d9, [sp, #80]
/home/avees/tee/darknetz/ta/darknetp_ta.c:48
     810:	0f000409 	movi	v9.2s, #0x0
/home/avees/tee/darknetz/ta/darknetp_ta.c:46
     814:	a90253f3 	stp	x19, x20, [sp, #32]
     818:	a9035bf5 	stp	x21, x22, [sp, #48]
/home/avees/tee/darknetz/ta/darknetp_ta.c:48
     81c:	1e204122 	fmov	s2, s9
/home/avees/tee/darknetz/ta/darknetp_ta.c:46
     820:	f90023f7 	str	x23, [sp, #64]
     824:	aa0003f7 	mov	x23, x0
     828:	f9400060 	ldr	x0, [x3]
     82c:	f90067e0 	str	x0, [sp, #200]
     830:	d2800000 	mov	x0, #0x0                   	// #0
/home/avees/tee/darknetz/ta/darknetp_ta.c:50
     834:	d2800003 	mov	x3, #0x0                   	// #0
/home/avees/tee/darknetz/ta/darknetp_ta.c:46
     838:	fd0027ea 	str	d10, [sp, #72]
/home/avees/tee/darknetz/ta/darknetp_ta.c:50 (discriminator 1)
     83c:	6b03005f 	cmp	w2, w3
     840:	5400054c 	b.gt	8e8 <summary_array+0xf4>
/home/avees/tee/darknetz/ta/darknetp_ta.c:69
     844:	1e220040 	scvtf	s0, w2
/home/avees/tee/darknetz/ta/darknetp_ta.c:75
     848:	9101a3f3 	add	x19, sp, #0x68
     84c:	aa1303e0 	mov	x0, x19
     850:	528000a1 	mov	w1, #0x5                   	// #5
/home/avees/tee/darknetz/ta/darknetp_ta.c:76
     854:	910203f4 	add	x20, sp, #0x80
/home/avees/tee/darknetz/ta/darknetp_ta.c:77
     858:	910263f5 	add	x21, sp, #0x98
/home/avees/tee/darknetz/ta/darknetp_ta.c:78
     85c:	9102c3f6 	add	x22, sp, #0xb0
/home/avees/tee/darknetz/ta/darknetp_ta.c:75
     860:	1e201840 	fdiv	s0, s2, s0
     864:	940006f8 	bl	2444 <ftoa>
/home/avees/tee/darknetz/ta/darknetp_ta.c:76
     868:	1e204100 	fmov	s0, s8
     86c:	aa1403e0 	mov	x0, x20
     870:	528000a1 	mov	w1, #0x5                   	// #5
     874:	940006f4 	bl	2444 <ftoa>
/home/avees/tee/darknetz/ta/darknetp_ta.c:77
     878:	1e204140 	fmov	s0, s10
     87c:	aa1503e0 	mov	x0, x21
     880:	528000a1 	mov	w1, #0x5                   	// #5
     884:	940006f0 	bl	2444 <ftoa>
/home/avees/tee/darknetz/ta/darknetp_ta.c:78
     888:	1e204120 	fmov	s0, s9
     88c:	aa1603e0 	mov	x0, x22
     890:	528000a1 	mov	w1, #0x5                   	// #5
     894:	940006ec 	bl	2444 <ftoa>
/home/avees/tee/darknetz/ta/darknetp_ta.c:80
     898:	a9005bf5 	stp	x21, x22, [sp]
     89c:	52800023 	mov	w3, #0x1                   	// #1
     8a0:	52800a01 	mov	w1, #0x50                  	// #80
     8a4:	aa1403e7 	mov	x7, x20
     8a8:	aa1303e6 	mov	x6, x19
     8ac:	aa1703e5 	mov	x5, x23
     8b0:	f00000e4 	adrp	x4, 1f000 <base64_table+0x24>
     8b4:	52800062 	mov	w2, #0x3                   	// #3
     8b8:	910b9084 	add	x4, x4, #0x2e4
     8bc:	d00000e0 	adrp	x0, 1e000 <__text_end+0x4534>
     8c0:	91378000 	add	x0, x0, #0xde0
     8c4:	94001e17 	bl	8120 <trace_printf>
/home/avees/tee/darknetz/ta/darknetp_ta.c:81
     8c8:	b0000103 	adrp	x3, 21000 <_DYNAMIC>
     8cc:	f940b463 	ldr	x3, [x3, #360]
     8d0:	f94067e0 	ldr	x0, [sp, #200]
     8d4:	f9400061 	ldr	x1, [x3]
     8d8:	eb010000 	subs	x0, x0, x1
     8dc:	d2800001 	mov	x1, #0x0                   	// #0
     8e0:	54000220 	b.eq	924 <summary_array+0x130>  // b.none
     8e4:	94001d0f 	bl	7d20 <__stack_chk_fail>
/home/avees/tee/darknetz/ta/darknetp_ta.c:52
     8e8:	bc637821 	ldr	s1, [x1, x3, lsl #2]
     8ec:	1e212842 	fadd	s2, s2, s1
/home/avees/tee/darknetz/ta/darknetp_ta.c:53
     8f0:	34000143 	cbz	w3, 918 <summary_array+0x124>
/home/avees/tee/darknetz/ta/darknetp_ta.c:58
     8f4:	1e282020 	fcmp	s1, s8
     8f8:	1e215d08 	fcsel	s8, s8, s1, pl  // pl = nfrst
/home/avees/tee/darknetz/ta/darknetp_ta.c:61
     8fc:	1e2a2020 	fcmp	s1, s10
     900:	1e21dd4a 	fcsel	s10, s10, s1, le
/home/avees/tee/darknetz/ta/darknetp_ta.c:63
     904:	1e202028 	fcmp	s1, #0.0
     908:	54000041 	b.ne	910 <summary_array+0x11c>  // b.any
/home/avees/tee/darknetz/ta/darknetp_ta.c:64
     90c:	1e202929 	fadd	s9, s9, s0
/home/avees/tee/darknetz/ta/darknetp_ta.c:50 (discriminator 2)
     910:	91000463 	add	x3, x3, #0x1
     914:	17ffffca 	b	83c <summary_array+0x48>
/home/avees/tee/darknetz/ta/darknetp_ta.c:54
     918:	1e204028 	fmov	s8, s1
/home/avees/tee/darknetz/ta/darknetp_ta.c:55
     91c:	1e20402a 	fmov	s10, s1
     920:	17fffff9 	b	904 <summary_array+0x110>
/home/avees/tee/darknetz/ta/darknetp_ta.c:81
     924:	a9417bfd 	ldp	x29, x30, [sp, #16]
     928:	a94253f3 	ldp	x19, x20, [sp, #32]
     92c:	a9435bf5 	ldp	x21, x22, [sp, #48]
     930:	f94023f7 	ldr	x23, [sp, #64]
     934:	fd4027ea 	ldr	d10, [sp, #72]
     938:	6d4527e8 	ldp	d8, d9, [sp, #80]
     93c:	910343ff 	add	sp, sp, #0xd0
     940:	d65f03c0 	ret

0000000000000944 <TA_CreateEntryPoint>:
TA_CreateEntryPoint():
/home/avees/tee/darknetz/ta/darknetp_ta.c:85
     944:	a9bf7bfd 	stp	x29, x30, [sp, #-16]!
/home/avees/tee/darknetz/ta/darknetp_ta.c:86
     948:	d00000e0 	adrp	x0, 1e000 <__text_end+0x4534>
     94c:	91378000 	add	x0, x0, #0xde0
/home/avees/tee/darknetz/ta/darknetp_ta.c:85
     950:	910003fd 	mov	x29, sp
/home/avees/tee/darknetz/ta/darknetp_ta.c:86
     954:	91003800 	add	x0, x0, #0xe
     958:	52800023 	mov	w3, #0x1                   	// #1
     95c:	52800062 	mov	w2, #0x3                   	// #3
     960:	52800ac1 	mov	w1, #0x56                  	// #86
     964:	f00000e4 	adrp	x4, 1f000 <base64_table+0x24>
     968:	910c6884 	add	x4, x4, #0x31a
     96c:	94001ded 	bl	8120 <trace_printf>
/home/avees/tee/darknetz/ta/darknetp_ta.c:89
     970:	52800000 	mov	w0, #0x0                   	// #0
     974:	a8c17bfd 	ldp	x29, x30, [sp], #16
     978:	d65f03c0 	ret

000000000000097c <TA_DestroyEntryPoint>:
TA_DestroyEntryPoint():
/home/avees/tee/darknetz/ta/darknetp_ta.c:93
     97c:	d00000e0 	adrp	x0, 1e000 <__text_end+0x4534>
     980:	91378000 	add	x0, x0, #0xde0
     984:	91008800 	add	x0, x0, #0x22
     988:	f00000e4 	adrp	x4, 1f000 <base64_table+0x24>
     98c:	52800023 	mov	w3, #0x1                   	// #1
     990:	910c6884 	add	x4, x4, #0x31a
     994:	52800062 	mov	w2, #0x3                   	// #3
     998:	52800ba1 	mov	w1, #0x5d                  	// #93
     99c:	14001de1 	b	8120 <trace_printf>

00000000000009a0 <TA_OpenSessionEntryPoint>:
TA_OpenSessionEntryPoint():
/home/avees/tee/darknetz/ta/darknetp_ta.c:99
     9a0:	a9be7bfd 	stp	x29, x30, [sp, #-32]!
/home/avees/tee/darknetz/ta/darknetp_ta.c:105
     9a4:	f00000e4 	adrp	x4, 1f000 <base64_table+0x24>
     9a8:	52800023 	mov	w3, #0x1                   	// #1
/home/avees/tee/darknetz/ta/darknetp_ta.c:99
     9ac:	910003fd 	mov	x29, sp
     9b0:	a90153f3 	stp	x19, x20, [sp, #16]
/home/avees/tee/darknetz/ta/darknetp_ta.c:105
     9b4:	d00000f3 	adrp	x19, 1e000 <__text_end+0x4534>
     9b8:	91378273 	add	x19, x19, #0xde0
     9bc:	9100de73 	add	x19, x19, #0x37
/home/avees/tee/darknetz/ta/darknetp_ta.c:99
     9c0:	2a0003f4 	mov	w20, w0
/home/avees/tee/darknetz/ta/darknetp_ta.c:105
     9c4:	910c6884 	add	x4, x4, #0x31a
     9c8:	aa1303e0 	mov	x0, x19
     9cc:	52800062 	mov	w2, #0x3                   	// #3
     9d0:	52800d21 	mov	w1, #0x69                  	// #105
     9d4:	94001dd3 	bl	8120 <trace_printf>
/home/avees/tee/darknetz/ta/darknetp_ta.c:107
     9d8:	35000194 	cbnz	w20, a08 <TA_OpenSessionEntryPoint+0x68>
/home/avees/tee/darknetz/ta/darknetp_ta.c:114
     9dc:	f00000e4 	adrp	x4, 1f000 <base64_table+0x24>
     9e0:	aa1303e0 	mov	x0, x19
     9e4:	910ca884 	add	x4, x4, #0x32a
     9e8:	52800023 	mov	w3, #0x1                   	// #1
     9ec:	52800042 	mov	w2, #0x2                   	// #2
     9f0:	52800e41 	mov	w1, #0x72                  	// #114
     9f4:	94001dcb 	bl	8120 <trace_printf>
/home/avees/tee/darknetz/ta/darknetp_ta.c:116
     9f8:	2a1403e0 	mov	w0, w20
     9fc:	a94153f3 	ldp	x19, x20, [sp, #16]
     a00:	a8c27bfd 	ldp	x29, x30, [sp], #32
     a04:	d65f03c0 	ret
/home/avees/tee/darknetz/ta/darknetp_ta.c:108
     a08:	129fff34 	mov	w20, #0xffff0006            	// #-65530
     a0c:	17fffffb 	b	9f8 <TA_OpenSessionEntryPoint+0x58>

0000000000000a10 <TA_CloseSessionEntryPoint>:
TA_CloseSessionEntryPoint():
/home/avees/tee/darknetz/ta/darknetp_ta.c:122
     a10:	d00000e0 	adrp	x0, 1e000 <__text_end+0x4534>
     a14:	91378000 	add	x0, x0, #0xde0
     a18:	91014000 	add	x0, x0, #0x50
     a1c:	f00000e4 	adrp	x4, 1f000 <base64_table+0x24>
     a20:	52800023 	mov	w3, #0x1                   	// #1
     a24:	910d0084 	add	x4, x4, #0x340
     a28:	52800042 	mov	w2, #0x2                   	// #2
     a2c:	52800f41 	mov	w1, #0x7a                  	// #122
     a30:	14001dbc 	b	8120 <trace_printf>

0000000000000a34 <TA_InvokeCommandEntryPoint>:
TA_InvokeCommandEntryPoint():
/home/avees/tee/darknetz/ta/darknetp_ta.c:983
     a34:	d104c3ff 	sub	sp, sp, #0x130
     a38:	51000421 	sub	w1, w1, #0x1
     a3c:	71005c3f 	cmp	w1, #0x17
     a40:	a9087bfd 	stp	x29, x30, [sp, #128]
     a44:	910203fd 	add	x29, sp, #0x80
     a48:	a90953f3 	stp	x19, x20, [sp, #144]
     a4c:	aa0303f3 	mov	x19, x3
     a50:	b0000103 	adrp	x3, 21000 <_DYNAMIC>
     a54:	a90a5bf5 	stp	x21, x22, [sp, #160]
     a58:	2a0203f5 	mov	w21, w2
     a5c:	aa0303f4 	mov	x20, x3
     a60:	f940b460 	ldr	x0, [x3, #360]
     a64:	a90b63f7 	stp	x23, x24, [sp, #176]
     a68:	f9400002 	ldr	x2, [x0]
     a6c:	f90097e2 	str	x2, [sp, #296]
     a70:	d2800002 	mov	x2, #0x0                   	// #0
/home/avees/tee/darknetz/ta/darknetp_ta.c:986
     a74:	54003448 	b.hi	10fc <TA_InvokeCommandEntryPoint+0x6c8>  // b.pmore
     a78:	d00000e0 	adrp	x0, 1e000 <__text_end+0x4534>
     a7c:	9136c000 	add	x0, x0, #0xdb0
     a80:	78615800 	ldrh	w0, [x0, w1, uxtw #1]
     a84:	10000061 	adr	x1, a90 <TA_InvokeCommandEntryPoint+0x5c>
     a88:	8b20a820 	add	x0, x1, w0, sxth #2
     a8c:	d61f0000 	br	x0
make_netowork_TA_params():
/home/avees/tee/darknetz/ta/darknetp_ta.c:134
     a90:	710156bf 	cmp	w21, #0x55
     a94:	54003341 	b.ne	10fc <TA_InvokeCommandEntryPoint+0x6c8>  // b.any
/home/avees/tee/darknetz/ta/darknetp_ta.c:137
     a98:	f9400260 	ldr	x0, [x19]
/home/avees/tee/darknetz/ta/darknetp_ta.c:138
     a9c:	f9400a68 	ldr	x8, [x19, #16]
/home/avees/tee/darknetz/ta/darknetp_ta.c:173
     aa0:	b9403c01 	ldr	w1, [x0, #60]
     aa4:	b90073e1 	str	w1, [sp, #112]
     aa8:	bd403900 	ldr	s0, [x8, #56]
     aac:	bd006be0 	str	s0, [sp, #104]
     ab0:	b9403801 	ldr	w1, [x0, #56]
     ab4:	b90063e1 	str	w1, [sp, #96]
     ab8:	bd403500 	ldr	s0, [x8, #52]
     abc:	bd005be0 	str	s0, [sp, #88]
     ac0:	bd403100 	ldr	s0, [x8, #48]
     ac4:	bd0053e0 	str	s0, [sp, #80]
     ac8:	bd402d00 	ldr	s0, [x8, #44]
     acc:	bd004be0 	str	s0, [sp, #72]
     ad0:	bd402900 	ldr	s0, [x8, #40]
     ad4:	bd0043e0 	str	s0, [sp, #64]
     ad8:	bd402500 	ldr	s0, [x8, #36]
     adc:	bd003be0 	str	s0, [sp, #56]
     ae0:	bd402100 	ldr	s0, [x8, #32]
     ae4:	bd0033e0 	str	s0, [sp, #48]
     ae8:	b9403401 	ldr	w1, [x0, #52]
     aec:	b9002be1 	str	w1, [sp, #40]
     af0:	b9403001 	ldr	w1, [x0, #48]
     af4:	b90023e1 	str	w1, [sp, #32]
     af8:	b9402c01 	ldr	w1, [x0, #44]
     afc:	b9001be1 	str	w1, [sp, #24]
     b00:	b9402801 	ldr	w1, [x0, #40]
     b04:	b90013e1 	str	w1, [sp, #16]
     b08:	b9402401 	ldr	w1, [x0, #36]
     b0c:	b9000be1 	str	w1, [sp, #8]
     b10:	b9402001 	ldr	w1, [x0, #32]
     b14:	b90003e1 	str	w1, [sp]
     b18:	2d431d06 	ldp	s6, s7, [x8, #24]
     b1c:	29408801 	ldp	w1, w2, [x0, #4]
     b20:	29419003 	ldp	w3, w4, [x0, #12]
     b24:	29429805 	ldp	w5, w6, [x0, #20]
     b28:	b9401c07 	ldr	w7, [x0, #28]
     b2c:	b9400000 	ldr	w0, [x0]
     b30:	2d400500 	ldp	s0, s1, [x8]
     b34:	2d410d02 	ldp	s2, s3, [x8, #8]
     b38:	2d421504 	ldp	s4, s5, [x8, #16]
     b3c:	94000c39 	bl	3c20 <make_network_TA>
tee_to_ree_TA():
/home/avees/tee/darknetz/ta/darknetp_ta.c:788
     b40:	52800000 	mov	w0, #0x0                   	// #0
TA_InvokeCommandEntryPoint():
/home/avees/tee/darknetz/ta/darknetp_ta.c:1057
     b44:	1400000a 	b	b6c <TA_InvokeCommandEntryPoint+0x138>
update_net_agrv_TA_params():
/home/avees/tee/darknetz/ta/darknetp_ta.c:187
     b48:	7101c6bf 	cmp	w21, #0x71
     b4c:	54002d81 	b.ne	10fc <TA_InvokeCommandEntryPoint+0x6c8>  // b.any
/home/avees/tee/darknetz/ta/darknetp_ta.c:190
     b50:	f9410c60 	ldr	x0, [x3, #536]
     b54:	f9400a61 	ldr	x1, [x19, #16]
     b58:	f9007801 	str	x1, [x0, #240]
/home/avees/tee/darknetz/ta/darknetp_ta.c:192
     b5c:	17fffff9 	b	b40 <TA_InvokeCommandEntryPoint+0x10c>
TA_InvokeCommandEntryPoint():
/home/avees/tee/darknetz/ta/darknetp_ta.c:994
     b60:	aa1303e1 	mov	x1, x19
     b64:	2a1503e0 	mov	w0, w21
     b68:	97fffd69 	bl	10c <make_convolutional_layer_TA_params>
/home/avees/tee/darknetz/ta/darknetp_ta.c:1062
     b6c:	f940b694 	ldr	x20, [x20, #360]
     b70:	f94097e1 	ldr	x1, [sp, #296]
     b74:	f9400282 	ldr	x2, [x20]
     b78:	eb020021 	subs	x1, x1, x2
     b7c:	d2800002 	mov	x2, #0x0                   	// #0
     b80:	54002c20 	b.eq	1104 <TA_InvokeCommandEntryPoint+0x6d0>  // b.none
     b84:	94001c67 	bl	7d20 <__stack_chk_fail>
/home/avees/tee/darknetz/ta/darknetp_ta.c:997
     b88:	aa1303e1 	mov	x1, x19
     b8c:	2a1503e0 	mov	w0, w21
     b90:	97fffebc 	bl	680 <make_maxpool_layer_TA_params.isra.0>
     b94:	17fffff6 	b	b6c <TA_InvokeCommandEntryPoint+0x138>
/home/avees/tee/darknetz/ta/darknetp_ta.c:1000
     b98:	aa1303e1 	mov	x1, x19
     b9c:	2a1503e0 	mov	w0, w21
     ba0:	97fffee7 	bl	73c <make_avgpool_layer_TA_params.isra.0>
     ba4:	17fffff2 	b	b6c <TA_InvokeCommandEntryPoint+0x138>
/home/avees/tee/darknetz/ta/darknetp_ta.c:1003
     ba8:	aa1303e1 	mov	x1, x19
     bac:	2a1503e0 	mov	w0, w21
     bb0:	97fffdb2 	bl	278 <make_dropout_layer_TA_params>
     bb4:	17ffffee 	b	b6c <TA_InvokeCommandEntryPoint+0x138>
/home/avees/tee/darknetz/ta/darknetp_ta.c:1006
     bb8:	aa1303e1 	mov	x1, x19
     bbc:	2a1503e0 	mov	w0, w21
     bc0:	97fffe00 	bl	3c0 <make_connected_layer_TA_params>
     bc4:	17ffffea 	b	b6c <TA_InvokeCommandEntryPoint+0x138>
/home/avees/tee/darknetz/ta/darknetp_ta.c:1009
     bc8:	aa1303e1 	mov	x1, x19
     bcc:	2a1503e0 	mov	w0, w21
     bd0:	97fffe37 	bl	4ac <make_softmax_layer_TA_params>
     bd4:	17ffffe6 	b	b6c <TA_InvokeCommandEntryPoint+0x138>
/home/avees/tee/darknetz/ta/darknetp_ta.c:1012
     bd8:	aa1303e1 	mov	x1, x19
     bdc:	2a1503e0 	mov	w0, w21
     be0:	97fffe65 	bl	574 <make_cost_layer_TA_params>
     be4:	17ffffe2 	b	b6c <TA_InvokeCommandEntryPoint+0x138>
transfer_weights_TA_params():
/home/avees/tee/darknetz/ta/darknetp_ta.c:457
     be8:	710556bf 	cmp	w21, #0x155
     bec:	54002881 	b.ne	10fc <TA_InvokeCommandEntryPoint+0x6c8>  // b.any
/home/avees/tee/darknetz/ta/darknetp_ta.c:462
     bf0:	f9400a60 	ldr	x0, [x19, #16]
/home/avees/tee/darknetz/ta/darknetp_ta.c:469
     bf4:	39408263 	ldrb	w3, [x19, #32]
     bf8:	29400801 	ldp	w1, w2, [x0]
     bfc:	b9400804 	ldr	w4, [x0, #8]
     c00:	f9400260 	ldr	x0, [x19]
     c04:	94000700 	bl	2804 <load_weights_TA>
/home/avees/tee/darknetz/ta/darknetp_ta.c:471
     c08:	17ffffce 	b	b40 <TA_InvokeCommandEntryPoint+0x10c>
save_weights_TA_params():
/home/avees/tee/darknetz/ta/darknetp_ta.c:484
     c0c:	71055abf 	cmp	w21, #0x156
     c10:	54002761 	b.ne	10fc <TA_InvokeCommandEntryPoint+0x6c8>  // b.any
/home/avees/tee/darknetz/ta/darknetp_ta.c:489
     c14:	f9400a60 	ldr	x0, [x19, #16]
/home/avees/tee/darknetz/ta/darknetp_ta.c:493
     c18:	39408278 	ldrb	w24, [x19, #32]
/home/avees/tee/darknetz/ta/darknetp_ta.c:487
     c1c:	f9400276 	ldr	x22, [x19]
/home/avees/tee/darknetz/ta/darknetp_ta.c:491
     c20:	29405c15 	ldp	w21, w23, [x0]
/home/avees/tee/darknetz/ta/darknetp_ta.c:495
     c24:	937e7ea0 	sbfiz	x0, x21, #2, #32
     c28:	94001b42 	bl	7930 <malloc>
/home/avees/tee/darknetz/ta/darknetp_ta.c:496
     c2c:	2a1703e2 	mov	w2, w23
/home/avees/tee/darknetz/ta/darknetp_ta.c:495
     c30:	aa0003f3 	mov	x19, x0
/home/avees/tee/darknetz/ta/darknetp_ta.c:496
     c34:	2a1803e3 	mov	w3, w24
     c38:	2a1503e1 	mov	w1, w21
     c3c:	9400074d 	bl	2970 <save_weights_TA>
/home/avees/tee/darknetz/ta/darknetp_ta.c:498
     c40:	d2800002 	mov	x2, #0x0                   	// #0
     c44:	6b0202bf 	cmp	w21, w2
     c48:	5400008c 	b.gt	c58 <TA_InvokeCommandEntryPoint+0x224>
/home/avees/tee/darknetz/ta/darknetp_ta.c:502
     c4c:	aa1303e0 	mov	x0, x19
net_output_return_TA_params():
/home/avees/tee/darknetz/ta/darknetp_ta.c:974
     c50:	94001b58 	bl	79b0 <free>
/home/avees/tee/darknetz/ta/darknetp_ta.c:976
     c54:	17ffffbb 	b	b40 <TA_InvokeCommandEntryPoint+0x10c>
save_weights_TA_params():
/home/avees/tee/darknetz/ta/darknetp_ta.c:499
     c58:	bc627a60 	ldr	s0, [x19, x2, lsl #2]
     c5c:	bc227ac0 	str	s0, [x22, x2, lsl #2]
/home/avees/tee/darknetz/ta/darknetp_ta.c:498
     c60:	91000442 	add	x2, x2, #0x1
     c64:	17fffff8 	b	c44 <TA_InvokeCommandEntryPoint+0x210>
forward_input_TA_params():
/home/avees/tee/darknetz/ta/darknetp_ta.c:512
     c68:	710056bf 	cmp	w21, #0x15
     c6c:	54002481 	b.ne	10fc <TA_InvokeCommandEntryPoint+0x6c8>  // b.any
/home/avees/tee/darknetz/ta/darknetp_ta.c:515
     c70:	a9405677 	ldp	x23, x21, [x19]
/home/avees/tee/darknetz/ta/darknetp_ta.c:518
     c74:	52800001 	mov	w1, #0x0                   	// #0
/home/avees/tee/darknetz/ta/darknetp_ta.c:516
     c78:	b9401276 	ldr	w22, [x19, #16]
/home/avees/tee/darknetz/ta/darknetp_ta.c:518
     c7c:	aa1503e0 	mov	x0, x21
     c80:	94002579 	bl	a264 <TEE_Malloc>
     c84:	f9410e93 	ldr	x19, [x20, #536]
/home/avees/tee/darknetz/ta/darknetp_ta.c:520
     c88:	aa1503e2 	mov	x2, x21
     c8c:	aa1703e1 	mov	x1, x23
/home/avees/tee/darknetz/ta/darknetp_ta.c:518
     c90:	f9006e60 	str	x0, [x19, #216]
/home/avees/tee/darknetz/ta/darknetp_ta.c:520
     c94:	9400251a 	bl	a0fc <TEE_MemMove>
/home/avees/tee/darknetz/ta/darknetp_ta.c:521
     c98:	b900fa76 	str	w22, [x19, #248]
/home/avees/tee/darknetz/ta/darknetp_ta.c:523
     c9c:	17ffffa9 	b	b40 <TA_InvokeCommandEntryPoint+0x10c>
forward_network_TA_params():
/home/avees/tee/darknetz/ta/darknetp_ta.c:528
     ca0:	94000c90 	bl	3ee0 <forward_network_TA>
/home/avees/tee/darknetz/ta/darknetp_ta.c:530
     ca4:	17ffffa7 	b	b40 <TA_InvokeCommandEntryPoint+0x10c>
backward_network_TA_params():
/home/avees/tee/darknetz/ta/darknetp_ta.c:620
     ca8:	710056bf 	cmp	w21, #0x15
     cac:	54002281 	b.ne	10fc <TA_InvokeCommandEntryPoint+0x6c8>  // b.any
/home/avees/tee/darknetz/ta/darknetp_ta.c:627
     cb0:	f9410c60 	ldr	x0, [x3, #536]
     cb4:	b9401261 	ldr	w1, [x19, #16]
/home/avees/tee/darknetz/ta/darknetp_ta.c:623
     cb8:	f9400275 	ldr	x21, [x19]
/home/avees/tee/darknetz/ta/darknetp_ta.c:627
     cbc:	b900f801 	str	w1, [x0, #248]
/home/avees/tee/darknetz/ta/darknetp_ta.c:629
     cc0:	f940c060 	ldr	x0, [x3, #384]
     cc4:	b9400000 	ldr	w0, [x0]
     cc8:	7100041f 	cmp	w0, #0x1
     ccc:	540000e1 	b.ne	ce8 <TA_InvokeCommandEntryPoint+0x2b4>  // b.any
/home/avees/tee/darknetz/ta/darknetp_ta.c:630
     cd0:	f9400662 	ldr	x2, [x19, #8]
     cd4:	f00000e0 	adrp	x0, 1f000 <base64_table+0x24>
     cd8:	aa1503e1 	mov	x1, x21
     cdc:	910d2800 	add	x0, x0, #0x34a
     ce0:	d3428442 	ubfx	x2, x2, #2, #32
     ce4:	97fffec4 	bl	7f4 <summary_array>
/home/avees/tee/darknetz/ta/darknetp_ta.c:634
     ce8:	aa1503e0 	mov	x0, x21
     cec:	94000d45 	bl	4200 <backward_network_TA>
/home/avees/tee/darknetz/ta/darknetp_ta.c:636
     cf0:	17ffff94 	b	b40 <TA_InvokeCommandEntryPoint+0x10c>
backward_network_TA_addidion_params():
/home/avees/tee/darknetz/ta/darknetp_ta.c:648
     cf4:	71019abf 	cmp	w21, #0x66
     cf8:	54002021 	b.ne	10fc <TA_InvokeCommandEntryPoint+0x6c8>  // b.any
/home/avees/tee/darknetz/ta/darknetp_ta.c:659
     cfc:	f940d060 	ldr	x0, [x3, #416]
/home/avees/tee/darknetz/ta/darknetp_ta.c:655
     d00:	f9400264 	ldr	x4, [x19]
/home/avees/tee/darknetz/ta/darknetp_ta.c:656
     d04:	f9400a65 	ldr	x5, [x19, #16]
/home/avees/tee/darknetz/ta/darknetp_ta.c:657
     d08:	f9400673 	ldr	x19, [x19, #8]
/home/avees/tee/darknetz/ta/darknetp_ta.c:659
     d0c:	f9400001 	ldr	x1, [x0]
/home/avees/tee/darknetz/ta/darknetp_ta.c:660
     d10:	f9409c60 	ldr	x0, [x3, #312]
/home/avees/tee/darknetz/ta/darknetp_ta.c:657
     d14:	d342fe73 	lsr	x19, x19, #2
     d18:	2a1303e2 	mov	w2, w19
/home/avees/tee/darknetz/ta/darknetp_ta.c:660
     d1c:	f9400003 	ldr	x3, [x0]
/home/avees/tee/darknetz/ta/darknetp_ta.c:658
     d20:	d2800000 	mov	x0, #0x0                   	// #0
     d24:	6b00005f 	cmp	w2, w0
     d28:	5400020c 	b.gt	d68 <TA_InvokeCommandEntryPoint+0x334>
/home/avees/tee/darknetz/ta/darknetp_ta.c:667
     d2c:	f940c280 	ldr	x0, [x20, #384]
     d30:	b9400000 	ldr	w0, [x0]
     d34:	7100041f 	cmp	w0, #0x1
     d38:	54fff041 	b.ne	b40 <TA_InvokeCommandEntryPoint+0x10c>  // b.any
/home/avees/tee/darknetz/ta/darknetp_ta.c:668
     d3c:	2a1303e2 	mov	w2, w19
     d40:	f00000e0 	adrp	x0, 1f000 <base64_table+0x24>
     d44:	910da800 	add	x0, x0, #0x36a
     d48:	97fffeab 	bl	7f4 <summary_array>
/home/avees/tee/darknetz/ta/darknetp_ta.c:669
     d4c:	f9409e80 	ldr	x0, [x20, #312]
     d50:	2a1303e2 	mov	w2, w19
     d54:	f9400001 	ldr	x1, [x0]
     d58:	f00000e0 	adrp	x0, 1f000 <base64_table+0x24>
     d5c:	910e4c00 	add	x0, x0, #0x393
backward_network_back_TA_addidion_params():
/home/avees/tee/darknetz/ta/darknetp_ta.c:730
     d60:	97fffea5 	bl	7f4 <summary_array>
     d64:	17ffff77 	b	b40 <TA_InvokeCommandEntryPoint+0x10c>
backward_network_TA_addidion_params():
/home/avees/tee/darknetz/ta/darknetp_ta.c:659
     d68:	bc607820 	ldr	s0, [x1, x0, lsl #2]
     d6c:	bc207880 	str	s0, [x4, x0, lsl #2]
/home/avees/tee/darknetz/ta/darknetp_ta.c:660
     d70:	bc607860 	ldr	s0, [x3, x0, lsl #2]
     d74:	bc2078a0 	str	s0, [x5, x0, lsl #2]
/home/avees/tee/darknetz/ta/darknetp_ta.c:658
     d78:	91000400 	add	x0, x0, #0x1
     d7c:	17ffffea 	b	d24 <TA_InvokeCommandEntryPoint+0x2f0>
update_network_TA_params():
/home/avees/tee/darknetz/ta/darknetp_ta.c:875
     d80:	710156bf 	cmp	w21, #0x55
     d84:	54001bc1 	b.ne	10fc <TA_InvokeCommandEntryPoint+0x6c8>  // b.any
/home/avees/tee/darknetz/ta/darknetp_ta.c:878
     d88:	f9400261 	ldr	x1, [x19]
/home/avees/tee/darknetz/ta/darknetp_ta.c:879
     d8c:	f9400a60 	ldr	x0, [x19, #16]
/home/avees/tee/darknetz/ta/darknetp_ta.c:882
     d90:	b9400022 	ldr	w2, [x1]
/home/avees/tee/darknetz/ta/darknetp_ta.c:885
     d94:	bd400000 	ldr	s0, [x0]
/home/avees/tee/darknetz/ta/darknetp_ta.c:882
     d98:	b90103e2 	str	w2, [sp, #256]
/home/avees/tee/darknetz/ta/darknetp_ta.c:883
     d9c:	b9400422 	ldr	w2, [x1, #4]
     da0:	b90113e2 	str	w2, [sp, #272]
/home/avees/tee/darknetz/ta/darknetp_ta.c:884
     da4:	b9400821 	ldr	w1, [x1, #8]
/home/avees/tee/darknetz/ta/darknetp_ta.c:885
     da8:	bd0107e0 	str	s0, [sp, #260]
/home/avees/tee/darknetz/ta/darknetp_ta.c:886
     dac:	bd400400 	ldr	s0, [x0, #4]
/home/avees/tee/darknetz/ta/darknetp_ta.c:884
     db0:	b90123e1 	str	w1, [sp, #288]
/home/avees/tee/darknetz/ta/darknetp_ta.c:886
     db4:	bd010be0 	str	s0, [sp, #264]
/home/avees/tee/darknetz/ta/darknetp_ta.c:887
     db8:	bd400800 	ldr	s0, [x0, #8]
     dbc:	bd010fe0 	str	s0, [sp, #268]
/home/avees/tee/darknetz/ta/darknetp_ta.c:888
     dc0:	bd400c00 	ldr	s0, [x0, #12]
/home/avees/tee/darknetz/ta/darknetp_ta.c:892
     dc4:	a9500fe2 	ldp	x2, x3, [sp, #256]
/home/avees/tee/darknetz/ta/darknetp_ta.c:888
     dc8:	bd0117e0 	str	s0, [sp, #276]
/home/avees/tee/darknetz/ta/darknetp_ta.c:889
     dcc:	bd401000 	ldr	s0, [x0, #16]
     dd0:	bd011be0 	str	s0, [sp, #280]
/home/avees/tee/darknetz/ta/darknetp_ta.c:890
     dd4:	bd401400 	ldr	s0, [x0, #20]
/home/avees/tee/darknetz/ta/darknetp_ta.c:892
     dd8:	910303e0 	add	x0, sp, #0xc0
     ddc:	a90c0fe2 	stp	x2, x3, [sp, #192]
/home/avees/tee/darknetz/ta/darknetp_ta.c:890
     de0:	bd011fe0 	str	s0, [sp, #284]
/home/avees/tee/darknetz/ta/darknetp_ta.c:892
     de4:	a9510fe2 	ldp	x2, x3, [sp, #272]
     de8:	a90d0fe2 	stp	x2, x3, [sp, #208]
     dec:	b900e3e1 	str	w1, [sp, #224]
     df0:	94000bef 	bl	3dac <update_network_TA>
/home/avees/tee/darknetz/ta/darknetp_ta.c:895
     df4:	17ffff53 	b	b40 <TA_InvokeCommandEntryPoint+0x10c>
net_truth_TA_params():
/home/avees/tee/darknetz/ta/darknetp_ta.c:909
     df8:	710016bf 	cmp	w21, #0x5
     dfc:	54001801 	b.ne	10fc <TA_InvokeCommandEntryPoint+0x6c8>  // b.any
/home/avees/tee/darknetz/ta/darknetp_ta.c:916
     e00:	f940a460 	ldr	x0, [x3, #328]
/home/avees/tee/darknetz/ta/darknetp_ta.c:915
     e04:	b9800a61 	ldrsw	x1, [x19, #8]
/home/avees/tee/darknetz/ta/darknetp_ta.c:913
     e08:	f9400264 	ldr	x4, [x19]
/home/avees/tee/darknetz/ta/darknetp_ta.c:915
     e0c:	d342fc21 	lsr	x1, x1, #2
/home/avees/tee/darknetz/ta/darknetp_ta.c:916
     e10:	f9400002 	ldr	x2, [x0]
/home/avees/tee/darknetz/ta/darknetp_ta.c:915
     e14:	d2800000 	mov	x0, #0x0                   	// #0
     e18:	eb00003f 	cmp	x1, x0
     e1c:	54000081 	b.ne	e2c <TA_InvokeCommandEntryPoint+0x3f8>  // b.any
/home/avees/tee/darknetz/ta/darknetp_ta.c:918
     e20:	f9410e80 	ldr	x0, [x20, #536]
     e24:	f9007002 	str	x2, [x0, #224]
/home/avees/tee/darknetz/ta/darknetp_ta.c:920
     e28:	17ffff46 	b	b40 <TA_InvokeCommandEntryPoint+0x10c>
/home/avees/tee/darknetz/ta/darknetp_ta.c:916
     e2c:	bc607880 	ldr	s0, [x4, x0, lsl #2]
     e30:	bc207840 	str	s0, [x2, x0, lsl #2]
/home/avees/tee/darknetz/ta/darknetp_ta.c:915
     e34:	91000400 	add	x0, x0, #0x1
     e38:	17fffff8 	b	e18 <TA_InvokeCommandEntryPoint+0x3e4>
TA_InvokeCommandEntryPoint():
/home/avees/tee/darknetz/ta/darknetp_ta.c:1039
     e3c:	f9400260 	ldr	x0, [x19]
calc_network_loss_TA_params():
/home/avees/tee/darknetz/ta/darknetp_ta.c:935
     e40:	b9400401 	ldr	w1, [x0, #4]
     e44:	b9400000 	ldr	w0, [x0]
     e48:	94000cad 	bl	40fc <calc_network_loss_TA>
/home/avees/tee/darknetz/ta/darknetp_ta.c:937
     e4c:	17ffff3d 	b	b40 <TA_InvokeCommandEntryPoint+0x10c>
net_output_return_TA_params():
/home/avees/tee/darknetz/ta/darknetp_ta.c:949
     e50:	71001abf 	cmp	w21, #0x6
     e54:	54001541 	b.ne	10fc <TA_InvokeCommandEntryPoint+0x6c8>  // b.any
/home/avees/tee/darknetz/ta/darknetp_ta.c:955
     e58:	f940fc61 	ldr	x1, [x3, #504]
/home/avees/tee/darknetz/ta/darknetp_ta.c:953
     e5c:	a9400a64 	ldp	x4, x2, [x19]
     e60:	f9411c60 	ldr	x0, [x3, #568]
/home/avees/tee/darknetz/ta/darknetp_ta.c:955
     e64:	b9400021 	ldr	w1, [x1]
/home/avees/tee/darknetz/ta/darknetp_ta.c:953
     e68:	d3428442 	ubfx	x2, x2, #2, #32
/home/avees/tee/darknetz/ta/darknetp_ta.c:955
     e6c:	f9400000 	ldr	x0, [x0]
     e70:	35000281 	cbnz	w1, ec0 <TA_InvokeCommandEntryPoint+0x48c>
/home/avees/tee/darknetz/ta/darknetp_ta.c:957
     e74:	d2800001 	mov	x1, #0x0                   	// #0
/home/avees/tee/darknetz/ta/darknetp_ta.c:970
     e78:	6b01005f 	cmp	w2, w1
     e7c:	54ffeead 	b.le	c50 <TA_InvokeCommandEntryPoint+0x21c>
/home/avees/tee/darknetz/ta/darknetp_ta.c:971
     e80:	bc617800 	ldr	s0, [x0, x1, lsl #2]
     e84:	bc217880 	str	s0, [x4, x1, lsl #2]
/home/avees/tee/darknetz/ta/darknetp_ta.c:970
     e88:	91000421 	add	x1, x1, #0x1
     e8c:	17fffffb 	b	e78 <TA_InvokeCommandEntryPoint+0x444>
/home/avees/tee/darknetz/ta/darknetp_ta.c:961
     e90:	bc617801 	ldr	s1, [x0, x1, lsl #2]
     e94:	1e202030 	fcmpe	s1, s0
     e98:	5400006d 	b.le	ea4 <TA_InvokeCommandEntryPoint+0x470>
/home/avees/tee/darknetz/ta/darknetp_ta.c:962
     e9c:	1e204020 	fmov	s0, s1
/home/avees/tee/darknetz/ta/darknetp_ta.c:961
     ea0:	2a0103e3 	mov	w3, w1
/home/avees/tee/darknetz/ta/darknetp_ta.c:965
     ea4:	b821781f 	str	wzr, [x0, x1, lsl #2]
/home/avees/tee/darknetz/ta/darknetp_ta.c:960
     ea8:	91000421 	add	x1, x1, #0x1
     eac:	6b01005f 	cmp	w2, w1
     eb0:	54ffff0c 	b.gt	e90 <TA_InvokeCommandEntryPoint+0x45c>
/home/avees/tee/darknetz/ta/darknetp_ta.c:967
     eb4:	1e2e1000 	fmov	s0, #1.000000000000000000e+00
     eb8:	bc23d800 	str	s0, [x0, w3, sxtw #2]
     ebc:	17ffffee 	b	e74 <TA_InvokeCommandEntryPoint+0x440>
/home/avees/tee/darknetz/ta/darknetp_ta.c:957
     ec0:	d00000e5 	adrp	x5, 1e000 <__text_end+0x4534>
     ec4:	d2800001 	mov	x1, #0x0                   	// #0
/home/avees/tee/darknetz/ta/darknetp_ta.c:958
     ec8:	52800003 	mov	w3, #0x0                   	// #0
/home/avees/tee/darknetz/ta/darknetp_ta.c:957
     ecc:	bd4e4ca0 	ldr	s0, [x5, #3660]
     ed0:	17fffff7 	b	eac <TA_InvokeCommandEntryPoint+0x478>
forward_network_back_TA_params():
/home/avees/tee/darknetz/ta/darknetp_ta.c:565
     ed4:	71009abf 	cmp	w21, #0x26
     ed8:	54001121 	b.ne	10fc <TA_InvokeCommandEntryPoint+0x6c8>  // b.any
/home/avees/tee/darknetz/ta/darknetp_ta.c:570
     edc:	f9410c75 	ldr	x21, [x3, #536]
     ee0:	52809102 	mov	w2, #0x488                 	// #1160
     ee4:	928090e1 	mov	x1, #0xfffffffffffffb78    	// #-1160
     ee8:	b94002a0 	ldr	w0, [x21]
     eec:	9b220401 	smaddl	x1, w0, w2, x1
     ef0:	f94012a0 	ldr	x0, [x21, #32]
/home/avees/tee/darknetz/ta/darknetp_ta.c:569
     ef4:	f9400662 	ldr	x2, [x19, #8]
/home/avees/tee/darknetz/ta/darknetp_ta.c:570
     ef8:	8b010000 	add	x0, x0, x1
/home/avees/tee/darknetz/ta/darknetp_ta.c:569
     efc:	f9412801 	ldr	x1, [x0, #592]
     f00:	f9400260 	ldr	x0, [x19]
     f04:	9400247e 	bl	a0fc <TEE_MemMove>
/home/avees/tee/darknetz/ta/darknetp_ta.c:572
     f08:	f9406ea0 	ldr	x0, [x21, #216]
     f0c:	94002521 	bl	a390 <TEE_Free>
/home/avees/tee/darknetz/ta/darknetp_ta.c:573
     f10:	17ffff0c 	b	b40 <TA_InvokeCommandEntryPoint+0x10c>
backward_network_back_TA_params():
/home/avees/tee/darknetz/ta/darknetp_ta.c:688
     f14:	710156bf 	cmp	w21, #0x55
     f18:	54000f21 	b.ne	10fc <TA_InvokeCommandEntryPoint+0x6c8>  // b.any
/home/avees/tee/darknetz/ta/darknetp_ta.c:696
     f1c:	f9410c62 	ldr	x2, [x3, #536]
     f20:	928090e0 	mov	x0, #0xfffffffffffffb78    	// #-1160
/home/avees/tee/darknetz/ta/darknetp_ta.c:691
     f24:	f9400265 	ldr	x5, [x19]
/home/avees/tee/darknetz/ta/darknetp_ta.c:696
     f28:	52809103 	mov	w3, #0x488                 	// #1160
     f2c:	b9400041 	ldr	w1, [x2]
/home/avees/tee/darknetz/ta/darknetp_ta.c:692
     f30:	f9400a66 	ldr	x6, [x19, #16]
/home/avees/tee/darknetz/ta/darknetp_ta.c:693
     f34:	f9400673 	ldr	x19, [x19, #8]
/home/avees/tee/darknetz/ta/darknetp_ta.c:696
     f38:	9b230020 	smaddl	x0, w1, w3, x0
     f3c:	f9401041 	ldr	x1, [x2, #32]
/home/avees/tee/darknetz/ta/darknetp_ta.c:693
     f40:	d342fe73 	lsr	x19, x19, #2
     f44:	2a1303e4 	mov	w4, w19
/home/avees/tee/darknetz/ta/darknetp_ta.c:696
     f48:	8b000021 	add	x1, x1, x0
/home/avees/tee/darknetz/ta/darknetp_ta.c:695
     f4c:	d2800000 	mov	x0, #0x0                   	// #0
     f50:	6b00009f 	cmp	w4, w0
     f54:	540002cc 	b.gt	fac <TA_InvokeCommandEntryPoint+0x578>
/home/avees/tee/darknetz/ta/darknetp_ta.c:700
     f58:	f940c280 	ldr	x0, [x20, #384]
     f5c:	b9400000 	ldr	w0, [x0]
     f60:	7100041f 	cmp	w0, #0x1
     f64:	54ffdee1 	b.ne	b40 <TA_InvokeCommandEntryPoint+0x10c>  // b.any
/home/avees/tee/darknetz/ta/darknetp_ta.c:701
     f68:	f9412821 	ldr	x1, [x1, #592]
     f6c:	2a1303e2 	mov	w2, w19
     f70:	f00000e0 	adrp	x0, 1f000 <base64_table+0x24>
     f74:	910eec00 	add	x0, x0, #0x3bb
     f78:	97fffe1f 	bl	7f4 <summary_array>
/home/avees/tee/darknetz/ta/darknetp_ta.c:702
     f7c:	f9410e82 	ldr	x2, [x20, #536]
     f80:	52809103 	mov	w3, #0x488                 	// #1160
     f84:	928090e1 	mov	x1, #0xfffffffffffffb78    	// #-1160
     f88:	b9400040 	ldr	w0, [x2]
     f8c:	9b230401 	smaddl	x1, w0, w3, x1
     f90:	f9401040 	ldr	x0, [x2, #32]
     f94:	2a1303e2 	mov	w2, w19
     f98:	8b010000 	add	x0, x0, x1
     f9c:	f9412401 	ldr	x1, [x0, #584]
     fa0:	f00000e0 	adrp	x0, 1f000 <base64_table+0x24>
     fa4:	910f8000 	add	x0, x0, #0x3e0
     fa8:	17ffff6e 	b	d60 <TA_InvokeCommandEntryPoint+0x32c>
/home/avees/tee/darknetz/ta/darknetp_ta.c:696
     fac:	f9412823 	ldr	x3, [x1, #592]
     fb0:	d37ef402 	lsl	x2, x0, #2
     fb4:	bc6078a0 	ldr	s0, [x5, x0, lsl #2]
     fb8:	bc226860 	str	s0, [x3, x2]
/home/avees/tee/darknetz/ta/darknetp_ta.c:697
     fbc:	f9412423 	ldr	x3, [x1, #584]
     fc0:	bc6078c0 	ldr	s0, [x6, x0, lsl #2]
     fc4:	91000400 	add	x0, x0, #0x1
     fc8:	bc226860 	str	s0, [x3, x2]
/home/avees/tee/darknetz/ta/darknetp_ta.c:695
     fcc:	17ffffe1 	b	f50 <TA_InvokeCommandEntryPoint+0x51c>
backward_network_back_TA_addidion_params():
/home/avees/tee/darknetz/ta/darknetp_ta.c:717
     fd0:	71001abf 	cmp	w21, #0x6
     fd4:	54000941 	b.ne	10fc <TA_InvokeCommandEntryPoint+0x6c8>  // b.any
/home/avees/tee/darknetz/ta/darknetp_ta.c:725
     fd8:	f9410c63 	ldr	x3, [x3, #536]
     fdc:	52809106 	mov	w6, #0x488                 	// #1160
/home/avees/tee/darknetz/ta/darknetp_ta.c:722
     fe0:	a9400a65 	ldp	x5, x2, [x19]
/home/avees/tee/darknetz/ta/darknetp_ta.c:725
     fe4:	928090e0 	mov	x0, #0xfffffffffffffb78    	// #-1160
     fe8:	b9400061 	ldr	w1, [x3]
     fec:	9b260020 	smaddl	x0, w1, w6, x0
/home/avees/tee/darknetz/ta/darknetp_ta.c:722
     ff0:	d342fc42 	lsr	x2, x2, #2
/home/avees/tee/darknetz/ta/darknetp_ta.c:725
     ff4:	f9401061 	ldr	x1, [x3, #32]
/home/avees/tee/darknetz/ta/darknetp_ta.c:722
     ff8:	2a0203e4 	mov	w4, w2
/home/avees/tee/darknetz/ta/darknetp_ta.c:725
     ffc:	8b000021 	add	x1, x1, x0
/home/avees/tee/darknetz/ta/darknetp_ta.c:724
    1000:	d2800000 	mov	x0, #0x0                   	// #0
    1004:	6b00009f 	cmp	w4, w0
    1008:	5400012c 	b.gt	102c <TA_InvokeCommandEntryPoint+0x5f8>
/home/avees/tee/darknetz/ta/darknetp_ta.c:729
    100c:	f940c280 	ldr	x0, [x20, #384]
    1010:	b9400000 	ldr	w0, [x0]
    1014:	7100041f 	cmp	w0, #0x1
    1018:	54ffd941 	b.ne	b40 <TA_InvokeCommandEntryPoint+0x10c>  // b.any
/home/avees/tee/darknetz/ta/darknetp_ta.c:730
    101c:	d00000e0 	adrp	x0, 1f000 <base64_table+0x24>
    1020:	91101000 	add	x0, x0, #0x404
    1024:	f9412821 	ldr	x1, [x1, #592]
    1028:	17ffff4e 	b	d60 <TA_InvokeCommandEntryPoint+0x32c>
/home/avees/tee/darknetz/ta/darknetp_ta.c:725
    102c:	f9412823 	ldr	x3, [x1, #592]
    1030:	bc607860 	ldr	s0, [x3, x0, lsl #2]
    1034:	bc2078a0 	str	s0, [x5, x0, lsl #2]
/home/avees/tee/darknetz/ta/darknetp_ta.c:724
    1038:	91000400 	add	x0, x0, #0x1
    103c:	17fffff2 	b	1004 <TA_InvokeCommandEntryPoint+0x5d0>
ree_to_tee_TA():
/home/avees/tee/darknetz/ta/darknetp_ta.c:753
    1040:	710856bf 	cmp	w21, #0x215
    1044:	540005c1 	b.ne	10fc <TA_InvokeCommandEntryPoint+0x6c8>  // b.any
/home/avees/tee/darknetz/ta/darknetp_ta.c:756
    1048:	a9405677 	ldp	x23, x21, [x19]
/home/avees/tee/darknetz/ta/darknetp_ta.c:758
    104c:	52800001 	mov	w1, #0x0                   	// #0
/home/avees/tee/darknetz/ta/darknetp_ta.c:757
    1050:	b9401276 	ldr	w22, [x19, #16]
/home/avees/tee/darknetz/ta/darknetp_ta.c:756
    1054:	d342feb5 	lsr	x21, x21, #2
/home/avees/tee/darknetz/ta/darknetp_ta.c:758
    1058:	aa1503e0 	mov	x0, x21
    105c:	94002482 	bl	a264 <TEE_Malloc>
    1060:	90000101 	adrp	x1, 21000 <_DYNAMIC>
    1064:	91252033 	add	x19, x1, #0x948
/home/avees/tee/darknetz/ta/darknetp_ta.c:760
    1068:	aa1503e2 	mov	x2, x21
/home/avees/tee/darknetz/ta/darknetp_ta.c:758
    106c:	f904a420 	str	x0, [x1, #2376]
/home/avees/tee/darknetz/ta/darknetp_ta.c:760
    1070:	aa1703e1 	mov	x1, x23
    1074:	94002422 	bl	a0fc <TEE_MemMove>
/home/avees/tee/darknetz/ta/darknetp_ta.c:761
    1078:	b9001276 	str	w22, [x19, #16]
/home/avees/tee/darknetz/ta/darknetp_ta.c:764
    107c:	17fffeb1 	b	b40 <TA_InvokeCommandEntryPoint+0x10c>
tee_to_ree_TA():
/home/avees/tee/darknetz/ta/darknetp_ta.c:773
    1080:	9103e3e0 	add	x0, sp, #0xf8
    1084:	94002427 	bl	a120 <TEE_GetSystemTime>
/home/avees/tee/darknetz/ta/darknetp_ta.c:774
    1088:	71009abf 	cmp	w21, #0x26
    108c:	54000381 	b.ne	10fc <TA_InvokeCommandEntryPoint+0x6c8>  // b.any
/home/avees/tee/darknetz/ta/darknetp_ta.c:780
    1090:	90000115 	adrp	x21, 21000 <_DYNAMIC>
/home/avees/tee/darknetz/ta/darknetp_ta.c:779
    1094:	a9400a60 	ldp	x0, x2, [x19]
    1098:	f944a6a1 	ldr	x1, [x21, #2376]
    109c:	94002418 	bl	a0fc <TEE_MemMove>
/home/avees/tee/darknetz/ta/darknetp_ta.c:782
    10a0:	910403e0 	add	x0, sp, #0x100
    10a4:	9400241f 	bl	a120 <TEE_GetSystemTime>
diff_time_us():
/home/avees/tee/darknetz/ta/darknetp_ta.c:38
    10a8:	295f0be1 	ldp	w1, w2, [sp, #248]
/home/avees/tee/darknetz/ta/darknetp_ta.c:37
    10ac:	b94103e0 	ldr	w0, [sp, #256]
    10b0:	4b010000 	sub	w0, w0, w1
/home/avees/tee/darknetz/ta/darknetp_ta.c:38
    10b4:	b94107e1 	ldr	w1, [sp, #260]
    10b8:	4b020021 	sub	w1, w1, w2
/home/avees/tee/darknetz/ta/darknetp_ta.c:39
    10bc:	52807d02 	mov	w2, #0x3e8                 	// #1000
    10c0:	9b227c21 	smull	x1, w1, w2
    10c4:	52884802 	mov	w2, #0x4240                	// #16960
    10c8:	72a001e2 	movk	w2, #0xf, lsl #16
    10cc:	9b220400 	smaddl	x0, w0, w2, x1
    10d0:	b2407fe1 	mov	x1, #0xffffffff            	// #4294967295
    10d4:	eb01001f 	cmp	x0, x1
    10d8:	9a81d000 	csel	x0, x0, x1, le
/home/avees/tee/darknetz/ta/darknetp_ta.c:42
    10dc:	f100001f 	cmp	x0, #0x0
    10e0:	9a9fa000 	csel	x0, x0, xzr, ge  // ge = tcont
    10e4:	b9001260 	str	w0, [x19, #16]
tee_to_ree_TA():
/home/avees/tee/darknetz/ta/darknetp_ta.c:784
    10e8:	f944a6a0 	ldr	x0, [x21, #2376]
    10ec:	b4ffd2a0 	cbz	x0, b40 <TA_InvokeCommandEntryPoint+0x10c>
/home/avees/tee/darknetz/ta/darknetp_ta.c:785
    10f0:	940024a8 	bl	a390 <TEE_Free>
/home/avees/tee/darknetz/ta/darknetp_ta.c:786
    10f4:	f904a6bf 	str	xzr, [x21, #2376]
    10f8:	17fffe92 	b	b40 <TA_InvokeCommandEntryPoint+0x10c>
make_netowork_TA_params():
/home/avees/tee/darknetz/ta/darknetp_ta.c:135
    10fc:	129fff20 	mov	w0, #0xffff0006            	// #-65530
    1100:	17fffe9b 	b	b6c <TA_InvokeCommandEntryPoint+0x138>
TA_InvokeCommandEntryPoint():
/home/avees/tee/darknetz/ta/darknetp_ta.c:1062
    1104:	a9487bfd 	ldp	x29, x30, [sp, #128]
    1108:	a94953f3 	ldp	x19, x20, [sp, #144]
    110c:	a94a5bf5 	ldp	x21, x22, [sp, #160]
    1110:	a94b63f7 	ldp	x23, x24, [sp, #176]
    1114:	9104c3ff 	add	sp, sp, #0x130
    1118:	d65f03c0 	ret

000000000000111c <forward_softmax_layer_TA>:
forward_softmax_layer_TA():
/home/avees/tee/darknetz/ta/softmax_layer_TA.c:47
    111c:	a9b87bfd 	stp	x29, x30, [sp, #-128]!
    1120:	910003fd 	mov	x29, sp
    1124:	a9046bf9 	stp	x25, x26, [sp, #64]
    1128:	f9423c19 	ldr	x25, [x0, #1144]
    112c:	a90153f3 	stp	x19, x20, [sp, #16]
    1130:	b9403414 	ldr	w20, [x0, #52]
    1134:	a9025bf5 	stp	x21, x22, [sp, #32]
    1138:	aa0003f3 	mov	x19, x0
    113c:	b9404015 	ldr	w21, [x0, #64]
    1140:	a90363f7 	stp	x23, x24, [sp, #48]
    1144:	a90573fb 	stp	x27, x28, [sp, #80]
    1148:	a94dec3c 	ldp	x28, x27, [x1, #216]
    114c:	f9412818 	ldr	x24, [x0, #592]
    1150:	f9412c1a 	ldr	x26, [x0, #600]
    1154:	fd0033e8 	str	d8, [sp, #96]
    1158:	bd417408 	ldr	s8, [x0, #372]
/home/avees/tee/darknetz/ta/softmax_layer_TA.c:48
    115c:	b50006b9 	cbnz	x25, 1230 <forward_softmax_layer_TA+0x114>
    1160:	b9407a64 	ldr	w4, [x19, #120]
/home/avees/tee/darknetz/ta/softmax_layer_TA.c:57
    1164:	1e204100 	fmov	s0, s8
    1168:	aa1803e7 	mov	x7, x24
    116c:	2a1503e3 	mov	w3, w21
    1170:	2a1403e2 	mov	w2, w20
    1174:	aa1c03e0 	mov	x0, x28
    1178:	52800026 	mov	w6, #0x1                   	// #1
    117c:	1ac40ea5 	sdiv	w5, w21, w4
    1180:	2a0503e1 	mov	w1, w5
    1184:	9400091a 	bl	35ec <softmax_cpu_TA>
    1188:	14000013 	b	11d4 <forward_softmax_layer_TA+0xb8>
/home/avees/tee/darknetz/ta/softmax_layer_TA.c:52 (discriminator 3)
    118c:	f9401f20 	ldr	x0, [x25, #56]
/home/avees/tee/darknetz/ta/softmax_layer_TA.c:53 (discriminator 3)
    1190:	1e204100 	fmov	s0, s8
    1194:	8b37cb07 	add	x7, x24, w23, sxtw #2
    1198:	52800026 	mov	w6, #0x1                   	// #1
    119c:	2a1503e3 	mov	w3, w21
    11a0:	2a0603e4 	mov	w4, w6
/home/avees/tee/darknetz/ta/softmax_layer_TA.c:52 (discriminator 3)
    11a4:	b8767801 	ldr	w1, [x0, x22, lsl #2]
/home/avees/tee/darknetz/ta/softmax_layer_TA.c:53 (discriminator 3)
    11a8:	2a1403e2 	mov	w2, w20
    11ac:	8b37cb80 	add	x0, x28, w23, sxtw #2
    11b0:	52800005 	mov	w5, #0x0                   	// #0
    11b4:	b9007fe1 	str	w1, [sp, #124]
    11b8:	910006d6 	add	x22, x22, #0x1
    11bc:	9400090c 	bl	35ec <softmax_cpu_TA>
/home/avees/tee/darknetz/ta/softmax_layer_TA.c:54 (discriminator 3)
    11c0:	b9407fe1 	ldr	w1, [sp, #124]
    11c4:	0b0102f7 	add	w23, w23, w1
/home/avees/tee/darknetz/ta/softmax_layer_TA.c:51 (discriminator 1)
    11c8:	b9403320 	ldr	w0, [x25, #48]
    11cc:	6b16001f 	cmp	w0, w22
    11d0:	54fffdec 	b.gt	118c <forward_softmax_layer_TA+0x70>
/home/avees/tee/darknetz/ta/softmax_layer_TA.c:60
    11d4:	b40001fb 	cbz	x27, 1210 <forward_softmax_layer_TA+0xf4>
/home/avees/tee/darknetz/ta/softmax_layer_TA.c:60 (discriminator 1)
    11d8:	b940e260 	ldr	w0, [x19, #224]
    11dc:	350001a0 	cbnz	w0, 1210 <forward_softmax_layer_TA+0xf4>
/home/avees/tee/darknetz/ta/softmax_layer_TA.c:61
    11e0:	f9412663 	ldr	x3, [x19, #584]
    11e4:	1b157e94 	mul	w20, w20, w21
    11e8:	aa1a03e4 	mov	x4, x26
    11ec:	aa1b03e2 	mov	x2, x27
    11f0:	aa1803e1 	mov	x1, x24
    11f4:	2a1403e0 	mov	w0, w20
    11f8:	9400092c 	bl	36a8 <softmax_x_ent_cpu_TA>
/home/avees/tee/darknetz/ta/softmax_layer_TA.c:62
    11fc:	f940e273 	ldr	x19, [x19, #448]
    1200:	2a1403e1 	mov	w1, w20
    1204:	aa1a03e0 	mov	x0, x26
    1208:	94000063 	bl	1394 <sum_array_TA>
    120c:	bd000260 	str	s0, [x19]
/home/avees/tee/darknetz/ta/softmax_layer_TA.c:64
    1210:	a94153f3 	ldp	x19, x20, [sp, #16]
    1214:	a9425bf5 	ldp	x21, x22, [sp, #32]
    1218:	a94363f7 	ldp	x23, x24, [sp, #48]
    121c:	a9446bf9 	ldp	x25, x26, [sp, #64]
    1220:	a94573fb 	ldp	x27, x28, [sp, #80]
    1224:	fd4033e8 	ldr	d8, [sp, #96]
    1228:	a8c87bfd 	ldp	x29, x30, [sp], #128
    122c:	d65f03c0 	ret
    1230:	d2800016 	mov	x22, #0x0                   	// #0
/home/avees/tee/darknetz/ta/softmax_layer_TA.c:50
    1234:	52800017 	mov	w23, #0x0                   	// #0
    1238:	17ffffe4 	b	11c8 <forward_softmax_layer_TA+0xac>

000000000000123c <backward_softmax_layer_TA>:
backward_softmax_layer_TA():
/home/avees/tee/darknetz/ta/softmax_layer_TA.c:69
    123c:	b9403405 	ldr	w5, [x0, #52]
    1240:	1e2e1000 	fmov	s0, #1.000000000000000000e+00
    1244:	b9404006 	ldr	w6, [x0, #64]
    1248:	52800024 	mov	w4, #0x1                   	// #1
    124c:	f9407423 	ldr	x3, [x1, #232]
    1250:	2a0403e2 	mov	w2, w4
    1254:	f9412401 	ldr	x1, [x0, #584]
    1258:	1b057cc0 	mul	w0, w6, w5
    125c:	14000862 	b	33e4 <axpy_cpu_TA>

0000000000001260 <make_softmax_layer_TA_new>:
make_softmax_layer_TA_new():
/home/avees/tee/darknetz/ta/softmax_layer_TA.c:16
    1260:	a9b87bfd 	stp	x29, x30, [sp, #-128]!
    1264:	910003fd 	mov	x29, sp
    1268:	a90363f7 	stp	x23, x24, [sp, #48]
    126c:	2a0003f7 	mov	w23, w0
/home/avees/tee/darknetz/ta/softmax_layer_TA.c:17
    1270:	1ac20c20 	sdiv	w0, w1, w2
/home/avees/tee/darknetz/ta/softmax_layer_TA.c:16
    1274:	a90153f3 	stp	x19, x20, [sp, #16]
    1278:	a9025bf5 	stp	x21, x22, [sp, #32]
/home/avees/tee/darknetz/ta/softmax_layer_TA.c:17
    127c:	1b028400 	msub	w0, w0, w2, w1
/home/avees/tee/darknetz/ta/softmax_layer_TA.c:16
    1280:	a9046bf9 	stp	x25, x26, [sp, #64]
    1284:	a90573fb 	stp	x27, x28, [sp, #80]
    1288:	fd0033e8 	str	d8, [sp, #96]
/home/avees/tee/darknetz/ta/softmax_layer_TA.c:17
    128c:	34000140 	cbz	w0, 12b4 <make_softmax_layer_TA_new+0x54>
_assert_trap():
/home/avees/Linux_for_Tegra/sources/tegra/optee-src/nv-optee/optee/build/t234/export-ta_arm64/include/assert.h:19
    1290:	d00000e3 	adrp	x3, 1f000 <base64_table+0x24>
    1294:	d00000e1 	adrp	x1, 1f000 <base64_table+0x24>
    1298:	91116063 	add	x3, x3, #0x458
    129c:	9110c821 	add	x1, x1, #0x432
    12a0:	d00000e0 	adrp	x0, 1f000 <base64_table+0x24>
    12a4:	91111400 	add	x0, x0, #0x445
    12a8:	52800222 	mov	w2, #0x11                  	// #17
    12ac:	94001fd1 	bl	91f0 <_assert_log>
/home/avees/Linux_for_Tegra/sources/tegra/optee-src/nv-optee/optee/build/t234/export-ta_arm64/include/assert.h:20
    12b0:	94001fe1 	bl	9234 <_assert_break>
    12b4:	2a0103f4 	mov	w20, w1
    12b8:	1e204008 	fmov	s8, s0
    12bc:	2a0203f5 	mov	w21, w2
make_softmax_layer_TA_new():
/home/avees/tee/darknetz/ta/softmax_layer_TA.c:19
    12c0:	d2809102 	mov	x2, #0x488                 	// #1160
    12c4:	aa0803f3 	mov	x19, x8
    12c8:	2a0503fc 	mov	w28, w5
/home/avees/tee/darknetz/ta/softmax_layer_TA.c:26
    12cc:	1b177e96 	mul	w22, w20, w23
    12d0:	2a0603fb 	mov	w27, w6
    12d4:	2a0703fa 	mov	w26, w7
/home/avees/tee/darknetz/ta/softmax_layer_TA.c:19
    12d8:	aa0803e0 	mov	x0, x8
    12dc:	52800001 	mov	w1, #0x0                   	// #0
    12e0:	290f13e3 	stp	w3, w4, [sp, #120]
/home/avees/tee/darknetz/ta/softmax_layer_TA.c:26
    12e4:	93407ed6 	sxtw	x22, w22
/home/avees/tee/darknetz/ta/softmax_layer_TA.c:19
    12e8:	94001a9a 	bl	7d50 <memset>
/home/avees/tee/darknetz/ta/softmax_layer_TA.c:26
    12ec:	aa1603e0 	mov	x0, x22
    12f0:	d2800081 	mov	x1, #0x4                   	// #4
    12f4:	94001995 	bl	7948 <calloc>
    12f8:	aa0003f8 	mov	x24, x0
/home/avees/tee/darknetz/ta/softmax_layer_TA.c:27
    12fc:	d2800081 	mov	x1, #0x4                   	// #4
    1300:	aa1603e0 	mov	x0, x22
    1304:	94001991 	bl	7948 <calloc>
    1308:	aa0003f9 	mov	x25, x0
/home/avees/tee/darknetz/ta/softmax_layer_TA.c:28
    130c:	d2800081 	mov	x1, #0x4                   	// #4
    1310:	aa1603e0 	mov	x0, x22
    1314:	9400198d 	bl	7948 <calloc>
    1318:	aa0003f6 	mov	x22, x0
/home/avees/tee/darknetz/ta/softmax_layer_TA.c:29
    131c:	d2800081 	mov	x1, #0x4                   	// #4
    1320:	d2800020 	mov	x0, #0x1                   	// #1
    1324:	94001989 	bl	7948 <calloc>
/home/avees/tee/darknetz/ta/softmax_layer_TA.c:41
    1328:	b9003677 	str	w23, [x19, #52]
    132c:	52800081 	mov	w1, #0x4                   	// #4
    1330:	b9000261 	str	w1, [x19]
    1334:	90000101 	adrp	x1, 21000 <_DYNAMIC>
    1338:	29085274 	stp	w20, w20, [x19, #64]
    133c:	294f13e3 	ldp	w3, w4, [sp, #120]
    1340:	290b0e64 	stp	w4, w3, [x19, #88]
    1344:	f940a022 	ldr	x2, [x1, #320]
    1348:	b900627c 	str	w28, [x19, #96]
    134c:	f9410821 	ldr	x1, [x1, #528]
    1350:	b9007a75 	str	w21, [x19, #120]
    1354:	b900927b 	str	w27, [x19, #144]
    1358:	b900e27a 	str	w26, [x19, #224]
    135c:	bd017668 	str	s8, [x19, #372]
    1360:	f900e260 	str	x0, [x19, #448]
    1364:	f9012676 	str	x22, [x19, #584]
    1368:	f9012a79 	str	x25, [x19, #592]
    136c:	f9012e78 	str	x24, [x19, #600]
/home/avees/tee/darknetz/ta/softmax_layer_TA.c:42
    1370:	a9425bf5 	ldp	x21, x22, [sp, #32]
    1374:	a94363f7 	ldp	x23, x24, [sp, #48]
    1378:	a9446bf9 	ldp	x25, x26, [sp, #64]
    137c:	a94573fb 	ldp	x27, x28, [sp, #80]
    1380:	fd4033e8 	ldr	d8, [sp, #96]
/home/avees/tee/darknetz/ta/softmax_layer_TA.c:41
    1384:	a9010662 	stp	x2, x1, [x19, #16]
/home/avees/tee/darknetz/ta/softmax_layer_TA.c:42
    1388:	a94153f3 	ldp	x19, x20, [sp, #16]
    138c:	a8c87bfd 	ldp	x29, x30, [sp], #128
    1390:	d65f03c0 	ret

0000000000001394 <sum_array_TA>:
sum_array_TA():
/home/avees/tee/darknetz/ta/utils_TA.c:11
    1394:	0f000400 	movi	v0.2s, #0x0
/home/avees/tee/darknetz/ta/utils_TA.c:12
    1398:	d2800002 	mov	x2, #0x0                   	// #0
/home/avees/tee/darknetz/ta/utils_TA.c:12 (discriminator 1)
    139c:	6b02003f 	cmp	w1, w2
    13a0:	5400004c 	b.gt	13a8 <sum_array_TA+0x14>
/home/avees/tee/darknetz/ta/utils_TA.c:15
    13a4:	d65f03c0 	ret
/home/avees/tee/darknetz/ta/utils_TA.c:12 (discriminator 3)
    13a8:	bc627801 	ldr	s1, [x0, x2, lsl #2]
    13ac:	91000442 	add	x2, x2, #0x1
    13b0:	1e212800 	fadd	s0, s0, s1
    13b4:	17fffffa 	b	139c <sum_array_TA+0x8>

00000000000013b8 <rand_uniform_TA>:
rand_uniform_TA():
/home/avees/tee/darknetz/ta/utils_TA.c:18
    13b8:	a9be7bfd 	stp	x29, x30, [sp, #-32]!
/home/avees/tee/darknetz/ta/utils_TA.c:19
    13bc:	1e202030 	fcmpe	s1, s0
/home/avees/tee/darknetz/ta/utils_TA.c:18
    13c0:	910003fd 	mov	x29, sp
    13c4:	6d0127e8 	stp	d8, d9, [sp, #16]
    13c8:	1e204009 	fmov	s9, s0
    13cc:	1e204028 	fmov	s8, s1
/home/avees/tee/darknetz/ta/utils_TA.c:19
    13d0:	54000065 	b.pl	13dc <rand_uniform_TA+0x24>  // b.nfrst
/home/avees/tee/darknetz/ta/utils_TA.c:21
    13d4:	1e204029 	fmov	s9, s1
/home/avees/tee/darknetz/ta/utils_TA.c:22
    13d8:	1e204008 	fmov	s8, s0
/home/avees/tee/darknetz/ta/utils_TA.c:24
    13dc:	94000256 	bl	1d34 <ta_rand>
    13e0:	1e293908 	fsub	s8, s8, s9
/home/avees/tee/darknetz/ta/utils_TA.c:25
    13e4:	1f082400 	fmadd	s0, s0, s8, s9
    13e8:	6d4127e8 	ldp	d8, d9, [sp, #16]
    13ec:	a8c27bfd 	ldp	x29, x30, [sp], #32
    13f0:	d65f03c0 	ret

00000000000013f4 <rand_normal_TA>:
rand_normal_TA():
/home/avees/tee/darknetz/ta/utils_TA.c:28
    13f4:	a9ba7bfd 	stp	x29, x30, [sp, #-96]!
/home/avees/tee/darknetz/ta/utils_TA.c:33
    13f8:	90000120 	adrp	x0, 25000 <data.5267+0x34d0>
/home/avees/tee/darknetz/ta/utils_TA.c:28
    13fc:	910003fd 	mov	x29, sp
/home/avees/tee/darknetz/ta/utils_TA.c:33
    1400:	b94b4802 	ldr	w2, [x0, #2888]
/home/avees/tee/darknetz/ta/utils_TA.c:28
    1404:	f9000bf3 	str	x19, [sp, #16]
    1408:	6d0227e8 	stp	d8, d9, [sp, #32]
/home/avees/tee/darknetz/ta/utils_TA.c:33
    140c:	7100045f 	cmp	w2, #0x1
/home/avees/tee/darknetz/ta/utils_TA.c:28
    1410:	1e204009 	fmov	s9, s0
    1414:	6d032fea 	stp	d10, d11, [sp, #48]
    1418:	6d0437ec 	stp	d12, d13, [sp, #64]
    141c:	1e20402c 	fmov	s12, s1
    1420:	6d053fee 	stp	d14, d15, [sp, #80]
/home/avees/tee/darknetz/ta/utils_TA.c:33
    1424:	540004e0 	b.eq	14c0 <rand_normal_TA+0xcc>  // b.none
    1428:	aa0003f3 	mov	x19, x0
/home/avees/tee/darknetz/ta/utils_TA.c:41
    142c:	1e20100d 	fmov	s13, #2.000000000000000000e+00
    1430:	1e3e100e 	fmov	s14, #-1.000000000000000000e+00
/home/avees/tee/darknetz/ta/utils_TA.c:45
    1434:	1e2e100f 	fmov	s15, #1.000000000000000000e+00
/home/avees/tee/darknetz/ta/utils_TA.c:41 (discriminator 3)
    1438:	9400023f 	bl	1d34 <ta_rand>
    143c:	1f0d380a 	fmadd	s10, s0, s13, s14
/home/avees/tee/darknetz/ta/utils_TA.c:42 (discriminator 3)
    1440:	9400023d 	bl	1d34 <ta_rand>
    1444:	1f0d380b 	fmadd	s11, s0, s13, s14
/home/avees/tee/darknetz/ta/utils_TA.c:43 (discriminator 3)
    1448:	1e22c140 	fcvt	d0, s10
    144c:	52800040 	mov	w0, #0x2                   	// #2
    1450:	940001e6 	bl	1be8 <ta_pow>
    1454:	1e604008 	fmov	d8, d0
    1458:	1e22c160 	fcvt	d0, s11
    145c:	52800040 	mov	w0, #0x2                   	// #2
    1460:	940001e2 	bl	1be8 <ta_pow>
    1464:	1e602902 	fadd	d2, d8, d0
    1468:	1e624042 	fcvt	s2, d2
/home/avees/tee/darknetz/ta/utils_TA.c:45 (discriminator 3)
    146c:	1e2f2050 	fcmpe	s2, s15
    1470:	54fffe4a 	b.ge	1438 <rand_normal_TA+0x44>  // b.tcont
/home/avees/tee/darknetz/ta/utils_TA.c:45 (discriminator 2)
    1474:	1e202048 	fcmp	s2, #0.0
    1478:	54fffe00 	b.eq	1438 <rand_normal_TA+0x44>  // b.none
/home/avees/tee/darknetz/ta/utils_TA.c:47
    147c:	1e22c048 	fcvt	d8, s2
    1480:	1e604100 	fmov	d0, d8
    1484:	940002f3 	bl	2050 <ta_ln>
    1488:	1e701001 	fmov	d1, #-2.000000000000000000e+00
    148c:	1e610800 	fmul	d0, d0, d1
    1490:	1e681800 	fdiv	d0, d0, d8
    1494:	94000253 	bl	1de0 <ta_sqrt>
    1498:	1e624000 	fcvt	s0, d0
/home/avees/tee/darknetz/ta/utils_TA.c:49
    149c:	912d2260 	add	x0, x19, #0xb48
    14a0:	1e20096b 	fmul	s11, s11, s0
/home/avees/tee/darknetz/ta/utils_TA.c:48
    14a4:	1e200940 	fmul	s0, s10, s0
/home/avees/tee/darknetz/ta/utils_TA.c:49
    14a8:	bd00040b 	str	s11, [x0, #4]
/home/avees/tee/darknetz/ta/utils_TA.c:51
    14ac:	b94b4a60 	ldr	w0, [x19, #2888]
    14b0:	7100001f 	cmp	w0, #0x0
    14b4:	1a9f17e0 	cset	w0, eq  // eq = none
    14b8:	b90b4a60 	str	w0, [x19, #2888]
/home/avees/tee/darknetz/ta/utils_TA.c:53
    14bc:	14000004 	b	14cc <rand_normal_TA+0xd8>
    14c0:	912d2001 	add	x1, x0, #0xb48
/home/avees/tee/darknetz/ta/utils_TA.c:35
    14c4:	b90b481f 	str	wzr, [x0, #2888]
/home/avees/tee/darknetz/ta/utils_TA.c:36
    14c8:	bd400420 	ldr	s0, [x1, #4]
/home/avees/tee/darknetz/ta/utils_TA.c:53
    14cc:	1f0c2400 	fmadd	s0, s0, s12, s9
/home/avees/tee/darknetz/ta/utils_TA.c:54
    14d0:	f9400bf3 	ldr	x19, [sp, #16]
    14d4:	6d4227e8 	ldp	d8, d9, [sp, #32]
    14d8:	6d432fea 	ldp	d10, d11, [sp, #48]
    14dc:	6d4437ec 	ldp	d12, d13, [sp, #64]
    14e0:	6d453fee 	ldp	d14, d15, [sp, #80]
    14e4:	a8c67bfd 	ldp	x29, x30, [sp], #96
    14e8:	d65f03c0 	ret

00000000000014ec <forward_connected_layer_TA_new>:
forward_connected_layer_TA_new():
/home/avees/tee/darknetz/ta/connected_layer_TA.c:19
    14ec:	d11843ff 	sub	sp, sp, #0x610
/home/avees/tee/darknetz/ta/connected_layer_TA.c:20
    14f0:	0f000400 	movi	v0.2s, #0x0
    14f4:	52800022 	mov	w2, #0x1                   	// #1
/home/avees/tee/darknetz/ta/connected_layer_TA.c:19
    14f8:	a9027bfd 	stp	x29, x30, [sp, #32]
    14fc:	910083fd 	add	x29, sp, #0x20
    1500:	a9045bf5 	stp	x21, x22, [sp, #64]
    1504:	aa0103f6 	mov	x22, x1
    1508:	b9404415 	ldr	w21, [x0, #68]
    150c:	a90563f7 	stp	x23, x24, [sp, #80]
    1510:	b9403417 	ldr	w23, [x0, #52]
    1514:	a90353f3 	stp	x19, x20, [sp, #48]
    1518:	aa0003f3 	mov	x19, x0
    151c:	f9412814 	ldr	x20, [x0, #592]
/home/avees/tee/darknetz/ta/connected_layer_TA.c:20
    1520:	1b157ef8 	mul	w24, w23, w21
    1524:	aa1403e1 	mov	x1, x20
    1528:	2a1803e0 	mov	w0, w24
    152c:	9400072b 	bl	31d8 <fill_cpu_TA>
/home/avees/tee/darknetz/ta/connected_layer_TA.c:29
    1530:	1e2e1001 	fmov	s1, #1.000000000000000000e+00
/home/avees/tee/darknetz/ta/connected_layer_TA.c:23
    1534:	b9404266 	ldr	w6, [x19, #64]
/home/avees/tee/darknetz/ta/connected_layer_TA.c:29
    1538:	f9406ec5 	ldr	x5, [x22, #216]
    153c:	1e204020 	fmov	s0, s1
    1540:	f9411e67 	ldr	x7, [x19, #568]
    1544:	b90003e6 	str	w6, [sp]
    1548:	f90007f4 	str	x20, [sp, #8]
    154c:	52800000 	mov	w0, #0x0                   	// #0
    1550:	b90013f5 	str	w21, [sp, #16]
    1554:	2a1503e3 	mov	w3, w21
    1558:	2a1703e2 	mov	w2, w23
    155c:	2a0603e4 	mov	w4, w6
    1560:	52800021 	mov	w1, #0x1                   	// #1
    1564:	94001664 	bl	6ef4 <gemm_TA>
/home/avees/tee/darknetz/ta/connected_layer_TA.c:31
    1568:	b9402e60 	ldr	w0, [x19, #44]
    156c:	340002e0 	cbz	w0, 15c8 <forward_connected_layer_TA_new+0xdc>
/home/avees/tee/darknetz/ta/connected_layer_TA.c:32
    1570:	910603f5 	add	x21, sp, #0x180
    1574:	aa1303e1 	mov	x1, x19
    1578:	d2809102 	mov	x2, #0x488                 	// #1160
    157c:	aa1503e0 	mov	x0, x21
    1580:	97fffaa8 	bl	20 <memcpy>
    1584:	910183e3 	add	x3, sp, #0x60
    1588:	d2802302 	mov	x2, #0x118                 	// #280
    158c:	aa1603e1 	mov	x1, x22
    1590:	aa0303e0 	mov	x0, x3
    1594:	97fffaa3 	bl	20 <memcpy>
    1598:	aa0003e1 	mov	x1, x0
    159c:	aa1503e0 	mov	x0, x21
    15a0:	94000e1e 	bl	4e18 <forward_batchnorm_layer_TA>
/home/avees/tee/darknetz/ta/connected_layer_TA.c:36
    15a4:	b9400662 	ldr	w2, [x19, #4]
    15a8:	2a1803e1 	mov	w1, w24
    15ac:	aa1403e0 	mov	x0, x20
/home/avees/tee/darknetz/ta/connected_layer_TA.c:37
    15b0:	a9427bfd 	ldp	x29, x30, [sp, #32]
    15b4:	a94353f3 	ldp	x19, x20, [sp, #48]
    15b8:	a9445bf5 	ldp	x21, x22, [sp, #64]
    15bc:	a94563f7 	ldp	x23, x24, [sp, #80]
    15c0:	911843ff 	add	sp, sp, #0x610
/home/avees/tee/darknetz/ta/connected_layer_TA.c:36
    15c4:	14000667 	b	2f60 <activate_array_TA>
/home/avees/tee/darknetz/ta/connected_layer_TA.c:34
    15c8:	f9410e61 	ldr	x1, [x19, #536]
    15cc:	2a1503e3 	mov	w3, w21
    15d0:	2a1703e2 	mov	w2, w23
    15d4:	aa1403e0 	mov	x0, x20
    15d8:	52800024 	mov	w4, #0x1                   	// #1
    15dc:	940010a8 	bl	587c <add_bias_TA>
    15e0:	17fffff1 	b	15a4 <forward_connected_layer_TA_new+0xb8>

00000000000015e4 <backward_connected_layer_TA_new>:
backward_connected_layer_TA_new():
/home/avees/tee/darknetz/ta/connected_layer_TA.c:40
    15e4:	d11883ff 	sub	sp, sp, #0x620
    15e8:	a9027bfd 	stp	x29, x30, [sp, #32]
    15ec:	910083fd 	add	x29, sp, #0x20
/home/avees/tee/darknetz/ta/connected_layer_TA.c:41
    15f0:	b9400402 	ldr	w2, [x0, #4]
/home/avees/tee/darknetz/ta/connected_layer_TA.c:40
    15f4:	a90353f3 	stp	x19, x20, [sp, #48]
    15f8:	aa0003f3 	mov	x19, x0
    15fc:	a9045bf5 	stp	x21, x22, [sp, #64]
    1600:	aa0103f6 	mov	x22, x1
    1604:	29485414 	ldp	w20, w21, [x0, #64]
    1608:	a90563f7 	stp	x23, x24, [sp, #80]
    160c:	b9403417 	ldr	w23, [x0, #52]
    1610:	f9412418 	ldr	x24, [x0, #584]
/home/avees/tee/darknetz/ta/connected_layer_TA.c:41
    1614:	f9412800 	ldr	x0, [x0, #592]
    1618:	1b157ee1 	mul	w1, w23, w21
    161c:	aa1803e3 	mov	x3, x24
/home/avees/tee/darknetz/ta/connected_layer_TA.c:40
    1620:	f90033f9 	str	x25, [sp, #96]
/home/avees/tee/darknetz/ta/connected_layer_TA.c:41
    1624:	940006d3 	bl	3170 <gradient_array_TA>
/home/avees/tee/darknetz/ta/connected_layer_TA.c:43
    1628:	b9402e60 	ldr	w0, [x19, #44]
    162c:	34000680 	cbz	w0, 16fc <backward_connected_layer_TA_new+0x118>
/home/avees/tee/darknetz/ta/connected_layer_TA.c:44
    1630:	910643f9 	add	x25, sp, #0x190
    1634:	aa1303e1 	mov	x1, x19
    1638:	d2809102 	mov	x2, #0x488                 	// #1160
    163c:	aa1903e0 	mov	x0, x25
    1640:	97fffa78 	bl	20 <memcpy>
    1644:	9101c3e3 	add	x3, sp, #0x70
    1648:	d2802302 	mov	x2, #0x118                 	// #280
    164c:	aa1603e1 	mov	x1, x22
    1650:	aa0303e0 	mov	x0, x3
    1654:	97fffa73 	bl	20 <memcpy>
    1658:	aa0003e1 	mov	x1, x0
    165c:	aa1903e0 	mov	x0, x25
    1660:	94000f57 	bl	53bc <backward_batchnorm_layer_TA>
/home/avees/tee/darknetz/ta/connected_layer_TA.c:56
    1664:	1e2e1001 	fmov	s1, #1.000000000000000000e+00
    1668:	2a1503e6 	mov	w6, w21
    166c:	f9406ec7 	ldr	x7, [x22, #216]
    1670:	1e204020 	fmov	s0, s1
    1674:	f9412260 	ldr	x0, [x19, #576]
    1678:	b90003f4 	str	w20, [sp]
    167c:	f90007e0 	str	x0, [sp, #8]
    1680:	aa1803e5 	mov	x5, x24
    1684:	b90013f4 	str	w20, [sp, #16]
    1688:	52800020 	mov	w0, #0x1                   	// #1
    168c:	2a1703e4 	mov	w4, w23
    1690:	2a1403e3 	mov	w3, w20
    1694:	2a1503e2 	mov	w2, w21
    1698:	52800001 	mov	w1, #0x0                   	// #0
    169c:	94001616 	bl	6ef4 <gemm_TA>
/home/avees/tee/darknetz/ta/connected_layer_TA.c:67
    16a0:	f94076c0 	ldr	x0, [x22, #232]
/home/avees/tee/darknetz/ta/connected_layer_TA.c:69
    16a4:	b40001e0 	cbz	x0, 16e0 <backward_connected_layer_TA_new+0xfc>
/home/avees/tee/darknetz/ta/connected_layer_TA.c:69 (discriminator 1)
    16a8:	1e2e1001 	fmov	s1, #1.000000000000000000e+00
    16ac:	2a1503e6 	mov	w6, w21
    16b0:	f9411e67 	ldr	x7, [x19, #568]
    16b4:	1e204020 	fmov	s0, s1
    16b8:	b90003f4 	str	w20, [sp]
    16bc:	aa1803e5 	mov	x5, x24
    16c0:	f90007e0 	str	x0, [sp, #8]
    16c4:	2a1503e4 	mov	w4, w21
    16c8:	b90013f4 	str	w20, [sp, #16]
    16cc:	2a1403e3 	mov	w3, w20
    16d0:	2a1703e2 	mov	w2, w23
    16d4:	52800001 	mov	w1, #0x0                   	// #0
    16d8:	52800000 	mov	w0, #0x0                   	// #0
    16dc:	94001606 	bl	6ef4 <gemm_TA>
/home/avees/tee/darknetz/ta/connected_layer_TA.c:71
    16e0:	a9427bfd 	ldp	x29, x30, [sp, #32]
    16e4:	a94353f3 	ldp	x19, x20, [sp, #48]
    16e8:	a9445bf5 	ldp	x21, x22, [sp, #64]
    16ec:	a94563f7 	ldp	x23, x24, [sp, #80]
    16f0:	f94033f9 	ldr	x25, [sp, #96]
    16f4:	911883ff 	add	sp, sp, #0x620
    16f8:	d65f03c0 	ret
/home/avees/tee/darknetz/ta/connected_layer_TA.c:46
    16fc:	f9411260 	ldr	x0, [x19, #544]
    1700:	2a1503e3 	mov	w3, w21
    1704:	2a1703e2 	mov	w2, w23
    1708:	aa1803e1 	mov	x1, x24
    170c:	52800024 	mov	w4, #0x1                   	// #1
    1710:	9400108f 	bl	594c <backward_bias_TA>
    1714:	17ffffd4 	b	1664 <backward_connected_layer_TA_new+0x80>

0000000000001718 <update_connected_layer_TA_new>:
update_connected_layer_TA_new():
/home/avees/tee/darknetz/ta/connected_layer_TA.c:75
    1718:	a9b97bfd 	stp	x29, x30, [sp, #-112]!
/home/avees/tee/darknetz/ta/connected_layer_TA.c:81
    171c:	52800024 	mov	w4, #0x1                   	// #1
    1720:	2a0403e2 	mov	w2, w4
/home/avees/tee/darknetz/ta/connected_layer_TA.c:75
    1724:	910003fd 	mov	x29, sp
    1728:	6d0527e8 	stp	d8, d9, [sp, #80]
/home/avees/tee/darknetz/ta/connected_layer_TA.c:81
    172c:	bd400029 	ldr	s9, [x1]
/home/avees/tee/darknetz/ta/connected_layer_TA.c:75
    1730:	6d062fea 	stp	d10, d11, [sp, #96]
/home/avees/tee/darknetz/ta/connected_layer_TA.c:76
    1734:	bd40d800 	ldr	s0, [x0, #216]
/home/avees/tee/darknetz/ta/connected_layer_TA.c:77
    1738:	2d40a828 	ldp	s8, s10, [x1, #4]
/home/avees/tee/darknetz/ta/connected_layer_TA.c:81
    173c:	5e21d929 	scvtf	s9, s9
    1740:	f9410c03 	ldr	x3, [x0, #536]
/home/avees/tee/darknetz/ta/connected_layer_TA.c:75
    1744:	a90153f3 	stp	x19, x20, [sp, #16]
/home/avees/tee/darknetz/ta/connected_layer_TA.c:76
    1748:	1e200908 	fmul	s8, s8, s0
/home/avees/tee/darknetz/ta/connected_layer_TA.c:75
    174c:	a9025bf5 	stp	x21, x22, [sp, #32]
    1750:	aa0003f3 	mov	x19, x0
/home/avees/tee/darknetz/ta/connected_layer_TA.c:78
    1754:	bd400c2b 	ldr	s11, [x1, #12]
    1758:	29485414 	ldp	w20, w21, [x0, #64]
/home/avees/tee/darknetz/ta/connected_layer_TA.c:75
    175c:	a90363f7 	stp	x23, x24, [sp, #48]
/home/avees/tee/darknetz/ta/connected_layer_TA.c:81
    1760:	1e291908 	fdiv	s8, s8, s9
    1764:	f9411818 	ldr	x24, [x0, #560]
    1768:	f9411c17 	ldr	x23, [x0, #568]
    176c:	f9412016 	ldr	x22, [x0, #576]
/home/avees/tee/darknetz/ta/connected_layer_TA.c:75
    1770:	f90023f9 	str	x25, [sp, #64]
    1774:	f9411019 	ldr	x25, [x0, #544]
/home/avees/tee/darknetz/ta/connected_layer_TA.c:81
    1778:	2a1503e0 	mov	w0, w21
    177c:	aa1903e1 	mov	x1, x25
    1780:	1e204100 	fmov	s0, s8
    1784:	94000718 	bl	33e4 <axpy_cpu_TA>
/home/avees/tee/darknetz/ta/connected_layer_TA.c:83
    1788:	1e204140 	fmov	s0, s10
    178c:	2a1503e0 	mov	w0, w21
    1790:	aa1903e1 	mov	x1, x25
    1794:	52800022 	mov	w2, #0x1                   	// #1
    1798:	94000709 	bl	33bc <scal_cpu_TA>
/home/avees/tee/darknetz/ta/connected_layer_TA.c:85
    179c:	b9402e60 	ldr	w0, [x19, #44]
    17a0:	340001a0 	cbz	w0, 17d4 <update_connected_layer_TA_new+0xbc>
/home/avees/tee/darknetz/ta/connected_layer_TA.c:86
    17a4:	1e204100 	fmov	s0, s8
    17a8:	aa1803e1 	mov	x1, x24
    17ac:	f9411663 	ldr	x3, [x19, #552]
    17b0:	2a1503e0 	mov	w0, w21
    17b4:	52800024 	mov	w4, #0x1                   	// #1
    17b8:	2a0403e2 	mov	w2, w4
    17bc:	9400070a 	bl	33e4 <axpy_cpu_TA>
/home/avees/tee/darknetz/ta/connected_layer_TA.c:87
    17c0:	1e204140 	fmov	s0, s10
    17c4:	aa1803e1 	mov	x1, x24
    17c8:	2a1503e0 	mov	w0, w21
    17cc:	52800022 	mov	w2, #0x1                   	// #1
    17d0:	940006fb 	bl	33bc <scal_cpu_TA>
/home/avees/tee/darknetz/ta/connected_layer_TA.c:90
    17d4:	1e298960 	fnmul	s0, s11, s9
    17d8:	1b157e94 	mul	w20, w20, w21
    17dc:	aa1603e3 	mov	x3, x22
    17e0:	aa1703e1 	mov	x1, x23
    17e4:	2a1403e0 	mov	w0, w20
    17e8:	52800024 	mov	w4, #0x1                   	// #1
    17ec:	2a0403e2 	mov	w2, w4
    17f0:	940006fd 	bl	33e4 <axpy_cpu_TA>
/home/avees/tee/darknetz/ta/connected_layer_TA.c:91
    17f4:	1e204100 	fmov	s0, s8
    17f8:	aa1703e3 	mov	x3, x23
    17fc:	aa1603e1 	mov	x1, x22
    1800:	2a1403e0 	mov	w0, w20
    1804:	52800024 	mov	w4, #0x1                   	// #1
    1808:	2a0403e2 	mov	w2, w4
    180c:	940006f6 	bl	33e4 <axpy_cpu_TA>
/home/avees/tee/darknetz/ta/connected_layer_TA.c:92
    1810:	1e204140 	fmov	s0, s10
    1814:	aa1603e1 	mov	x1, x22
    1818:	2a1403e0 	mov	w0, w20
/home/avees/tee/darknetz/ta/connected_layer_TA.c:93
    181c:	a94153f3 	ldp	x19, x20, [sp, #16]
/home/avees/tee/darknetz/ta/connected_layer_TA.c:92
    1820:	52800022 	mov	w2, #0x1                   	// #1
/home/avees/tee/darknetz/ta/connected_layer_TA.c:93
    1824:	a9425bf5 	ldp	x21, x22, [sp, #32]
    1828:	a94363f7 	ldp	x23, x24, [sp, #48]
    182c:	f94023f9 	ldr	x25, [sp, #64]
    1830:	6d4527e8 	ldp	d8, d9, [sp, #80]
    1834:	6d462fea 	ldp	d10, d11, [sp, #96]
    1838:	a8c77bfd 	ldp	x29, x30, [sp], #112
/home/avees/tee/darknetz/ta/connected_layer_TA.c:92
    183c:	140006e0 	b	33bc <scal_cpu_TA>

0000000000001840 <make_connected_layer_TA_new>:
make_connected_layer_TA_new():
/home/avees/tee/darknetz/ta/connected_layer_TA.c:96
    1840:	a9b07bfd 	stp	x29, x30, [sp, #-256]!
    1844:	910003fd 	mov	x29, sp
    1848:	a90153f3 	stp	x19, x20, [sp, #16]
    184c:	93407c53 	sxtw	x19, w2
/home/avees/tee/darknetz/ta/connected_layer_TA.c:98
    1850:	d2809102 	mov	x2, #0x488                 	// #1160
/home/avees/tee/darknetz/ta/connected_layer_TA.c:96
    1854:	a90573fb 	stp	x27, x28, [sp, #80]
    1858:	2a0003fb 	mov	w27, w0
    185c:	2a0403fc 	mov	w28, w4
    1860:	a9025bf5 	stp	x21, x22, [sp, #32]
    1864:	2a0103f5 	mov	w21, w1
/home/avees/tee/darknetz/ta/connected_layer_TA.c:113
    1868:	1b1b7e76 	mul	w22, w19, w27
/home/avees/tee/darknetz/ta/connected_layer_TA.c:96
    186c:	a90363f7 	stp	x23, x24, [sp, #48]
/home/avees/tee/darknetz/ta/connected_layer_TA.c:98
    1870:	aa0803e0 	mov	x0, x8
/home/avees/tee/darknetz/ta/connected_layer_TA.c:116
    1874:	1b137eb8 	mul	w24, w21, w19
/home/avees/tee/darknetz/ta/connected_layer_TA.c:113
    1878:	93407ed6 	sxtw	x22, w22
/home/avees/tee/darknetz/ta/connected_layer_TA.c:98
    187c:	52800001 	mov	w1, #0x0                   	// #0
/home/avees/tee/darknetz/ta/connected_layer_TA.c:96
    1880:	a9046bf9 	stp	x25, x26, [sp, #64]
    1884:	aa0803f9 	mov	x25, x8
/home/avees/tee/darknetz/ta/connected_layer_TA.c:116
    1888:	93407f17 	sxtw	x23, w24
/home/avees/tee/darknetz/ta/connected_layer_TA.c:96
    188c:	fd0033e8 	str	d8, [sp, #96]
    1890:	aa1303f4 	mov	x20, x19
    1894:	b9007be5 	str	w5, [sp, #120]
    1898:	b900c7e3 	str	w3, [sp, #196]
/home/avees/tee/darknetz/ta/connected_layer_TA.c:98
    189c:	9400192d 	bl	7d50 <memset>
/home/avees/tee/darknetz/ta/connected_layer_TA.c:113
    18a0:	d2800081 	mov	x1, #0x4                   	// #4
    18a4:	aa1603e0 	mov	x0, x22
    18a8:	94001828 	bl	7948 <calloc>
    18ac:	f90053e0 	str	x0, [sp, #160]
/home/avees/tee/darknetz/ta/connected_layer_TA.c:114
    18b0:	d2800081 	mov	x1, #0x4                   	// #4
    18b4:	aa1603e0 	mov	x0, x22
    18b8:	94001824 	bl	7948 <calloc>
    18bc:	f90057e0 	str	x0, [sp, #168]
/home/avees/tee/darknetz/ta/connected_layer_TA.c:116
    18c0:	d2800081 	mov	x1, #0x4                   	// #4
    18c4:	aa1703e0 	mov	x0, x23
    18c8:	94001820 	bl	7948 <calloc>
    18cc:	f9005be0 	str	x0, [sp, #176]
/home/avees/tee/darknetz/ta/connected_layer_TA.c:117
    18d0:	d2800081 	mov	x1, #0x4                   	// #4
    18d4:	aa1303e0 	mov	x0, x19
    18d8:	9400181c 	bl	7948 <calloc>
    18dc:	f9005fe0 	str	x0, [sp, #184]
/home/avees/tee/darknetz/ta/connected_layer_TA.c:119
    18e0:	d2800081 	mov	x1, #0x4                   	// #4
    18e4:	aa1703e0 	mov	x0, x23
    18e8:	94001818 	bl	7948 <calloc>
    18ec:	f9003be0 	str	x0, [sp, #112]
/home/avees/tee/darknetz/ta/connected_layer_TA.c:120
    18f0:	d2800081 	mov	x1, #0x4                   	// #4
    18f4:	aa1303e0 	mov	x0, x19
    18f8:	94001814 	bl	7948 <calloc>
    18fc:	aa0003fa 	mov	x26, x0
/home/avees/tee/darknetz/ta/connected_layer_TA.c:127
    1900:	1e6202a0 	scvtf	d0, w21
    1904:	1e601001 	fmov	d1, #2.000000000000000000e+00
    1908:	1e601820 	fdiv	d0, d1, d0
    190c:	94000135 	bl	1de0 <ta_sqrt>
    1910:	1e624008 	fcvt	s8, d0
/home/avees/tee/darknetz/ta/connected_layer_TA.c:128
    1914:	d2800000 	mov	x0, #0x0                   	// #0
/home/avees/tee/darknetz/ta/connected_layer_TA.c:128 (discriminator 1)
    1918:	6b00031f 	cmp	w24, w0
    191c:	5400120c 	b.gt	1b5c <make_connected_layer_TA_new+0x31c>
    1920:	d2800000 	mov	x0, #0x0                   	// #0
/home/avees/tee/darknetz/ta/connected_layer_TA.c:133 (discriminator 1)
    1924:	6b00029f 	cmp	w20, w0
    1928:	540012ec 	b.gt	1b84 <make_connected_layer_TA_new+0x344>
/home/avees/tee/darknetz/ta/connected_layer_TA.c:137
    192c:	b9407be0 	ldr	w0, [sp, #120]
    1930:	34001300 	cbz	w0, 1b90 <make_connected_layer_TA_new+0x350>
/home/avees/tee/darknetz/ta/connected_layer_TA.c:138
    1934:	d2800081 	mov	x1, #0x4                   	// #4
    1938:	aa1703e0 	mov	x0, x23
    193c:	94001803 	bl	7948 <calloc>
    1940:	aa0003f8 	mov	x24, x0
/home/avees/tee/darknetz/ta/connected_layer_TA.c:139
    1944:	d2800081 	mov	x1, #0x4                   	// #4
    1948:	aa1703e0 	mov	x0, x23
    194c:	940017ff 	bl	7948 <calloc>
    1950:	f9003fe0 	str	x0, [sp, #120]
/home/avees/tee/darknetz/ta/connected_layer_TA.c:140
    1954:	d2800081 	mov	x1, #0x4                   	// #4
    1958:	aa1303e0 	mov	x0, x19
    195c:	940017fb 	bl	7948 <calloc>
    1960:	f90043e0 	str	x0, [sp, #128]
/home/avees/tee/darknetz/ta/connected_layer_TA.c:141
    1964:	d2800081 	mov	x1, #0x4                   	// #4
    1968:	aa1303e0 	mov	x0, x19
    196c:	940017f7 	bl	7948 <calloc>
    1970:	f9004be0 	str	x0, [sp, #144]
/home/avees/tee/darknetz/ta/connected_layer_TA.c:142
    1974:	d2800081 	mov	x1, #0x4                   	// #4
    1978:	aa1303e0 	mov	x0, x19
    197c:	940017f3 	bl	7948 <calloc>
    1980:	f90047e0 	str	x0, [sp, #136]
/home/avees/tee/darknetz/ta/connected_layer_TA.c:143
    1984:	d2800081 	mov	x1, #0x4                   	// #4
    1988:	aa1303e0 	mov	x0, x19
    198c:	940017ef 	bl	7948 <calloc>
    1990:	f9004fe0 	str	x0, [sp, #152]
/home/avees/tee/darknetz/ta/connected_layer_TA.c:146
    1994:	1e2e1008 	fmov	s8, #1.000000000000000000e+00
    1998:	340010dc 	cbz	w28, 1bb0 <make_connected_layer_TA_new+0x370>
/home/avees/tee/darknetz/ta/connected_layer_TA.c:147
    199c:	d2800081 	mov	x1, #0x4                   	// #4
    19a0:	aa1303e0 	mov	x0, x19
    19a4:	940017e9 	bl	7948 <calloc>
    19a8:	aa0003f7 	mov	x23, x0
/home/avees/tee/darknetz/ta/connected_layer_TA.c:148
    19ac:	d2800081 	mov	x1, #0x4                   	// #4
    19b0:	aa1303e0 	mov	x0, x19
    19b4:	940017e5 	bl	7948 <calloc>
    19b8:	aa0003eb 	mov	x11, x0
/home/avees/tee/darknetz/ta/connected_layer_TA.c:149
    19bc:	d2800000 	mov	x0, #0x0                   	// #0
/home/avees/tee/darknetz/ta/connected_layer_TA.c:149 (discriminator 1)
    19c0:	6b00029f 	cmp	w20, w0
    19c4:	54000f0c 	b.gt	1ba4 <make_connected_layer_TA_new+0x364>
/home/avees/tee/darknetz/ta/connected_layer_TA.c:153
    19c8:	aa1303e0 	mov	x0, x19
    19cc:	d2800081 	mov	x1, #0x4                   	// #4
    19d0:	f9007feb 	str	x11, [sp, #248]
    19d4:	940017dd 	bl	7948 <calloc>
    19d8:	aa0003ea 	mov	x10, x0
/home/avees/tee/darknetz/ta/connected_layer_TA.c:154
    19dc:	d2800081 	mov	x1, #0x4                   	// #4
    19e0:	aa1303e0 	mov	x0, x19
/home/avees/tee/darknetz/ta/connected_layer_TA.c:153
    19e4:	f9007bea 	str	x10, [sp, #240]
/home/avees/tee/darknetz/ta/connected_layer_TA.c:154
    19e8:	940017d8 	bl	7948 <calloc>
    19ec:	aa0003e7 	mov	x7, x0
/home/avees/tee/darknetz/ta/connected_layer_TA.c:155
    19f0:	d2800081 	mov	x1, #0x4                   	// #4
    19f4:	aa1303e0 	mov	x0, x19
/home/avees/tee/darknetz/ta/connected_layer_TA.c:154
    19f8:	f90077e7 	str	x7, [sp, #232]
/home/avees/tee/darknetz/ta/connected_layer_TA.c:155
    19fc:	940017d3 	bl	7948 <calloc>
    1a00:	aa0003e9 	mov	x9, x0
/home/avees/tee/darknetz/ta/connected_layer_TA.c:156
    1a04:	d2800081 	mov	x1, #0x4                   	// #4
    1a08:	aa1303e0 	mov	x0, x19
/home/avees/tee/darknetz/ta/connected_layer_TA.c:155
    1a0c:	f90073e9 	str	x9, [sp, #224]
/home/avees/tee/darknetz/ta/connected_layer_TA.c:156
    1a10:	940017ce 	bl	7948 <calloc>
    1a14:	aa0003e6 	mov	x6, x0
/home/avees/tee/darknetz/ta/connected_layer_TA.c:158
    1a18:	d2800081 	mov	x1, #0x4                   	// #4
    1a1c:	aa1303e0 	mov	x0, x19
/home/avees/tee/darknetz/ta/connected_layer_TA.c:156
    1a20:	f9006fe6 	str	x6, [sp, #216]
/home/avees/tee/darknetz/ta/connected_layer_TA.c:158
    1a24:	940017c9 	bl	7948 <calloc>
    1a28:	aa0003e5 	mov	x5, x0
/home/avees/tee/darknetz/ta/connected_layer_TA.c:159
    1a2c:	d2800081 	mov	x1, #0x4                   	// #4
    1a30:	aa1303e0 	mov	x0, x19
/home/avees/tee/darknetz/ta/connected_layer_TA.c:158
    1a34:	f9006be5 	str	x5, [sp, #208]
/home/avees/tee/darknetz/ta/connected_layer_TA.c:159
    1a38:	940017c4 	bl	7948 <calloc>
    1a3c:	aa0003e4 	mov	x4, x0
/home/avees/tee/darknetz/ta/connected_layer_TA.c:161
    1a40:	d2800081 	mov	x1, #0x4                   	// #4
    1a44:	aa1603e0 	mov	x0, x22
/home/avees/tee/darknetz/ta/connected_layer_TA.c:159
    1a48:	f90067e4 	str	x4, [sp, #200]
/home/avees/tee/darknetz/ta/connected_layer_TA.c:161
    1a4c:	940017bf 	bl	7948 <calloc>
    1a50:	aa0003f3 	mov	x19, x0
/home/avees/tee/darknetz/ta/connected_layer_TA.c:162
    1a54:	d2800081 	mov	x1, #0x4                   	// #4
    1a58:	aa1603e0 	mov	x0, x22
    1a5c:	940017bb 	bl	7948 <calloc>
    1a60:	aa0003e3 	mov	x3, x0
    1a64:	a94c97e4 	ldp	x4, x5, [sp, #200]
    1a68:	a94da7e6 	ldp	x6, x9, [sp, #216]
    1a6c:	a94eabe7 	ldp	x7, x10, [sp, #232]
    1a70:	f9407feb 	ldr	x11, [sp, #248]
/home/avees/tee/darknetz/ta/connected_layer_TA.c:168
    1a74:	90000101 	adrp	x1, 21000 <_DYNAMIC>
    1a78:	52800040 	mov	w0, #0x2                   	// #2
    1a7c:	b9000320 	str	w0, [x25]
    1a80:	b940c7e0 	ldr	w0, [sp, #196]
    1a84:	b9000720 	str	w0, [x25, #4]
    1a88:	f9415820 	ldr	x0, [x1, #688]
    1a8c:	f9000b20 	str	x0, [x25, #16]
    1a90:	f940b020 	ldr	x0, [x1, #352]
    1a94:	b9002f3c 	str	w28, [x25, #44]
    1a98:	f9409821 	ldr	x1, [x1, #304]
    1a9c:	a9018720 	stp	x0, x1, [x25, #24]
    1aa0:	b20003e0 	mov	x0, #0x100000001           	// #4294967297
    1aa4:	f9002f20 	str	x0, [x25, #88]
    1aa8:	52800020 	mov	w0, #0x1                   	// #1
    1aac:	290c8320 	stp	w0, w0, [x25, #100]
    1ab0:	910a6321 	add	x1, x25, #0x298
    1ab4:	f9405fe0 	ldr	x0, [sp, #184]
    1ab8:	f9011320 	str	x0, [x25, #544]
    1abc:	f9403be0 	ldr	x0, [sp, #112]
    1ac0:	f9011f20 	str	x0, [x25, #568]
    1ac4:	f9405be0 	ldr	x0, [sp, #176]
    1ac8:	f9012320 	str	x0, [x25, #576]
    1acc:	f94057e0 	ldr	x0, [sp, #168]
    1ad0:	f9012720 	str	x0, [x25, #584]
    1ad4:	f94053e0 	ldr	x0, [sp, #160]
    1ad8:	f9012b20 	str	x0, [x25, #592]
    1adc:	9109e320 	add	x0, x25, #0x278
    1ae0:	b900373b 	str	w27, [x25, #52]
    1ae4:	29085335 	stp	w21, w20, [x25, #64]
    1ae8:	b9006335 	str	w21, [x25, #96]
    1aec:	b9006f34 	str	w20, [x25, #108]
    1af0:	bd00db28 	str	s8, [x25, #216]
    1af4:	f9010f3a 	str	x26, [x25, #536]
    1af8:	f9011737 	str	x23, [x25, #552]
    1afc:	f9011b2b 	str	x11, [x25, #560]
    1b00:	a900240a 	stp	x10, x9, [x0]
/home/avees/tee/darknetz/ta/connected_layer_TA.c:169
    1b04:	fd4033e8 	ldr	d8, [sp, #96]
/home/avees/tee/darknetz/ta/connected_layer_TA.c:168
    1b08:	a9011807 	stp	x7, x6, [x0, #16]
    1b0c:	f9403fe0 	ldr	x0, [sp, #120]
    1b10:	a9010c33 	stp	x19, x3, [x1, #16]
    1b14:	f9015f38 	str	x24, [x25, #696]
/home/avees/tee/darknetz/ta/connected_layer_TA.c:169
    1b18:	a94153f3 	ldp	x19, x20, [sp, #16]
/home/avees/tee/darknetz/ta/connected_layer_TA.c:168
    1b1c:	a9001025 	stp	x5, x4, [x1]
/home/avees/tee/darknetz/ta/connected_layer_TA.c:169
    1b20:	a9425bf5 	ldp	x21, x22, [sp, #32]
    1b24:	a94363f7 	ldp	x23, x24, [sp, #48]
    1b28:	a94573fb 	ldp	x27, x28, [sp, #80]
/home/avees/tee/darknetz/ta/connected_layer_TA.c:168
    1b2c:	f9016320 	str	x0, [x25, #704]
    1b30:	f94043e0 	ldr	x0, [sp, #128]
    1b34:	f9016720 	str	x0, [x25, #712]
    1b38:	f94047e0 	ldr	x0, [sp, #136]
    1b3c:	f9016b20 	str	x0, [x25, #720]
    1b40:	f9404be0 	ldr	x0, [sp, #144]
    1b44:	f9016f20 	str	x0, [x25, #728]
    1b48:	f9404fe0 	ldr	x0, [sp, #152]
    1b4c:	f9017320 	str	x0, [x25, #736]
/home/avees/tee/darknetz/ta/connected_layer_TA.c:169
    1b50:	a9446bf9 	ldp	x25, x26, [sp, #64]
    1b54:	a8d07bfd 	ldp	x29, x30, [sp], #256
    1b58:	d65f03c0 	ret
/home/avees/tee/darknetz/ta/connected_layer_TA.c:130 (discriminator 3)
    1b5c:	1e2e1001 	fmov	s1, #1.000000000000000000e+00
    1b60:	1e3e1000 	fmov	s0, #-1.000000000000000000e+00
    1b64:	f90043e0 	str	x0, [sp, #128]
    1b68:	97fffe14 	bl	13b8 <rand_uniform_TA>
    1b6c:	1e280800 	fmul	s0, s0, s8
    1b70:	f9403be1 	ldr	x1, [sp, #112]
    1b74:	f94043e0 	ldr	x0, [sp, #128]
    1b78:	bc207820 	str	s0, [x1, x0, lsl #2]
/home/avees/tee/darknetz/ta/connected_layer_TA.c:128 (discriminator 3)
    1b7c:	91000400 	add	x0, x0, #0x1
    1b80:	17ffff66 	b	1918 <make_connected_layer_TA_new+0xd8>
/home/avees/tee/darknetz/ta/connected_layer_TA.c:134 (discriminator 3)
    1b84:	b8207b5f 	str	wzr, [x26, x0, lsl #2]
/home/avees/tee/darknetz/ta/connected_layer_TA.c:133 (discriminator 3)
    1b88:	91000400 	add	x0, x0, #0x1
    1b8c:	17ffff66 	b	1924 <make_connected_layer_TA_new+0xe4>
/home/avees/tee/darknetz/ta/connected_layer_TA.c:98
    1b90:	d2800018 	mov	x24, #0x0                   	// #0
    1b94:	a907ffff 	stp	xzr, xzr, [sp, #120]
    1b98:	a908ffff 	stp	xzr, xzr, [sp, #136]
    1b9c:	f9004fff 	str	xzr, [sp, #152]
    1ba0:	17ffff7d 	b	1994 <make_connected_layer_TA_new+0x154>
/home/avees/tee/darknetz/ta/connected_layer_TA.c:150 (discriminator 3)
    1ba4:	bc207ae8 	str	s8, [x23, x0, lsl #2]
/home/avees/tee/darknetz/ta/connected_layer_TA.c:149 (discriminator 3)
    1ba8:	91000400 	add	x0, x0, #0x1
    1bac:	17ffff85 	b	19c0 <make_connected_layer_TA_new+0x180>
/home/avees/tee/darknetz/ta/connected_layer_TA.c:98
    1bb0:	d2800003 	mov	x3, #0x0                   	// #0
    1bb4:	d2800013 	mov	x19, #0x0                   	// #0
    1bb8:	d2800004 	mov	x4, #0x0                   	// #0
    1bbc:	d2800005 	mov	x5, #0x0                   	// #0
    1bc0:	d2800006 	mov	x6, #0x0                   	// #0
    1bc4:	d2800007 	mov	x7, #0x0                   	// #0
    1bc8:	d2800009 	mov	x9, #0x0                   	// #0
    1bcc:	d280000a 	mov	x10, #0x0                   	// #0
    1bd0:	d280000b 	mov	x11, #0x0                   	// #0
    1bd4:	d2800017 	mov	x23, #0x0                   	// #0
    1bd8:	17ffffa7 	b	1a74 <make_connected_layer_TA_new+0x234>

0000000000001bdc <ta_max>:
ta_max():
/home/avees/tee/darknetz/ta/math_TA.c:19
    1bdc:	1e212010 	fcmpe	s0, s1
/home/avees/tee/darknetz/ta/math_TA.c:22
    1be0:	1e21cc00 	fcsel	s0, s0, s1, gt
    1be4:	d65f03c0 	ret

0000000000001be8 <ta_pow>:
ta_pow():
/home/avees/tee/darknetz/ta/math_TA.c:26
    1be8:	a9be7bfd 	stp	x29, x30, [sp, #-32]!
    1bec:	910003fd 	mov	x29, sp
    1bf0:	fd000be8 	str	d8, [sp, #16]
    1bf4:	1e6e1008 	fmov	d8, #1.000000000000000000e+00
/home/avees/tee/darknetz/ta/math_TA.c:27
    1bf8:	36f801a0 	tbz	w0, #31, 1c2c <ta_pow+0x44>
    1bfc:	4b0003e0 	neg	w0, w0
    1c00:	97fffffa 	bl	1be8 <ta_pow>
    1c04:	1e601900 	fdiv	d0, d8, d0
/home/avees/tee/darknetz/ta/math_TA.c:36
    1c08:	fd400be8 	ldr	d8, [sp, #16]
    1c0c:	a8c27bfd 	ldp	x29, x30, [sp], #32
    1c10:	d65f03c0 	ret
/home/avees/tee/darknetz/ta/math_TA.c:31
    1c14:	36000040 	tbz	w0, #0, 1c1c <ta_pow+0x34>
/home/avees/tee/darknetz/ta/math_TA.c:31 (discriminator 1)
    1c18:	1e610800 	fmul	d0, d0, d1
/home/avees/tee/darknetz/ta/math_TA.c:32
    1c1c:	1e610821 	fmul	d1, d1, d1
/home/avees/tee/darknetz/ta/math_TA.c:33
    1c20:	13017c00 	asr	w0, w0, #1
/home/avees/tee/darknetz/ta/math_TA.c:29
    1c24:	35ffff80 	cbnz	w0, 1c14 <ta_pow+0x2c>
    1c28:	17fffff8 	b	1c08 <ta_pow+0x20>
    1c2c:	1e604001 	fmov	d1, d0
/home/avees/tee/darknetz/ta/math_TA.c:28
    1c30:	1e604100 	fmov	d0, d8
    1c34:	17fffffc 	b	1c24 <ta_pow+0x3c>

0000000000001c38 <ta_eee>:
ta_eee():
/home/avees/tee/darknetz/ta/math_TA.c:40
    1c38:	a9bd7bfd 	stp	x29, x30, [sp, #-48]!
/home/avees/tee/darknetz/ta/math_TA.c:41
    1c3c:	b00000e0 	adrp	x0, 1e000 <__text_end+0x4534>
/home/avees/tee/darknetz/ta/math_TA.c:40
    1c40:	910003fd 	mov	x29, sp
/home/avees/tee/darknetz/ta/math_TA.c:41
    1c44:	fd466001 	ldr	d1, [x0, #3264]
/home/avees/tee/darknetz/ta/math_TA.c:40
    1c48:	6d0127e8 	stp	d8, d9, [sp, #16]
    1c4c:	1e604008 	fmov	d8, d0
/home/avees/tee/darknetz/ta/math_TA.c:41
    1c50:	1e612010 	fcmpe	d0, d1
/home/avees/tee/darknetz/ta/math_TA.c:40
    1c54:	fd0013ea 	str	d10, [sp, #32]
    1c58:	1e6c100a 	fmov	d10, #5.000000000000000000e-01
/home/avees/tee/darknetz/ta/math_TA.c:41
    1c5c:	5400010d 	b.le	1c7c <ta_eee+0x44>
/home/avees/tee/darknetz/ta/math_TA.c:43
    1c60:	1e6a0800 	fmul	d0, d0, d10
    1c64:	97fffff5 	bl	1c38 <ta_eee>
/home/avees/tee/darknetz/ta/math_TA.c:44
    1c68:	1e600800 	fmul	d0, d0, d0
/home/avees/tee/darknetz/ta/math_TA.c:48
    1c6c:	6d4127e8 	ldp	d8, d9, [sp, #16]
    1c70:	fd4013ea 	ldr	d10, [sp, #32]
    1c74:	a8c37bfd 	ldp	x29, x30, [sp], #48
    1c78:	d65f03c0 	ret
/home/avees/tee/darknetz/ta/math_TA.c:47
    1c7c:	1e600801 	fmul	d1, d0, d0
    1c80:	1e6e1009 	fmov	d9, #1.000000000000000000e+00
    1c84:	52800060 	mov	w0, #0x3                   	// #3
    1c88:	1e692809 	fadd	d9, d0, d9
    1c8c:	1f4a242a 	fmadd	d10, d1, d10, d9
    1c90:	97ffffd6 	bl	1be8 <ta_pow>
    1c94:	1e631009 	fmov	d9, #6.000000000000000000e+00
    1c98:	52800080 	mov	w0, #0x4                   	// #4
    1c9c:	1e691809 	fdiv	d9, d0, d9
    1ca0:	1e604100 	fmov	d0, d8
    1ca4:	1e6a2929 	fadd	d9, d9, d10
    1ca8:	97ffffd0 	bl	1be8 <ta_pow>
    1cac:	1e671001 	fmov	d1, #2.400000000000000000e+01
    1cb0:	528000a0 	mov	w0, #0x5                   	// #5
    1cb4:	1e611800 	fdiv	d0, d0, d1
    1cb8:	1e692809 	fadd	d9, d0, d9
    1cbc:	1e604100 	fmov	d0, d8
    1cc0:	97ffffca 	bl	1be8 <ta_pow>
    1cc4:	d2e80bc0 	mov	x0, #0x405e000000000000    	// #4638144666238189568
    1cc8:	9e670001 	fmov	d1, x0
    1ccc:	1e611800 	fdiv	d0, d0, d1
    1cd0:	1e692800 	fadd	d0, d0, d9
    1cd4:	17ffffe6 	b	1c6c <ta_eee+0x34>

0000000000001cd8 <ta_exp>:
ta_exp():
/home/avees/tee/darknetz/ta/math_TA.c:52
    1cd8:	a9be7bfd 	stp	x29, x30, [sp, #-32]!
/home/avees/tee/darknetz/ta/math_TA.c:53
    1cdc:	1e602018 	fcmpe	d0, #0.0
/home/avees/tee/darknetz/ta/math_TA.c:52
    1ce0:	910003fd 	mov	x29, sp
    1ce4:	6d0127e8 	stp	d8, d9, [sp, #16]
/home/avees/tee/darknetz/ta/math_TA.c:53
    1ce8:	54000105 	b.pl	1d08 <ta_exp+0x30>  // b.nfrst
/home/avees/tee/darknetz/ta/math_TA.c:53 (discriminator 1)
    1cec:	1e614000 	fneg	d0, d0
    1cf0:	97fffffa 	bl	1cd8 <ta_exp>
    1cf4:	1e6e1001 	fmov	d1, #1.000000000000000000e+00
    1cf8:	1e601820 	fdiv	d0, d1, d0
/home/avees/tee/darknetz/ta/math_TA.c:59
    1cfc:	6d4127e8 	ldp	d8, d9, [sp, #16]
    1d00:	a8c27bfd 	ldp	x29, x30, [sp], #32
    1d04:	d65f03c0 	ret
/home/avees/tee/darknetz/ta/math_TA.c:54
    1d08:	1e780000 	fcvtzs	w0, d0
/home/avees/tee/darknetz/ta/math_TA.c:56
    1d0c:	b00000e1 	adrp	x1, 1e000 <__text_end+0x4534>
/home/avees/tee/darknetz/ta/math_TA.c:55
    1d10:	1e620009 	scvtf	d9, w0
    1d14:	1e693809 	fsub	d9, d0, d9
/home/avees/tee/darknetz/ta/math_TA.c:56
    1d18:	fd466420 	ldr	d0, [x1, #3272]
    1d1c:	97ffffb3 	bl	1be8 <ta_pow>
    1d20:	1e604008 	fmov	d8, d0
/home/avees/tee/darknetz/ta/math_TA.c:57
    1d24:	1e604120 	fmov	d0, d9
    1d28:	97ffffc4 	bl	1c38 <ta_eee>
/home/avees/tee/darknetz/ta/math_TA.c:58
    1d2c:	1e600900 	fmul	d0, d8, d0
    1d30:	17fffff3 	b	1cfc <ta_exp+0x24>

0000000000001d34 <ta_rand>:
ta_rand():
/home/avees/tee/darknetz/ta/math_TA.c:63
    1d34:	a9bb7bfd 	stp	x29, x30, [sp, #-80]!
    1d38:	90000100 	adrp	x0, 21000 <_DYNAMIC>
    1d3c:	910003fd 	mov	x29, sp
    1d40:	f940b400 	ldr	x0, [x0, #360]
    1d44:	f9400001 	ldr	x1, [x0]
    1d48:	f90027e1 	str	x1, [sp, #72]
    1d4c:	d2800001 	mov	x1, #0x0                   	// #0
    1d50:	f9000bf3 	str	x19, [sp, #16]
/home/avees/tee/darknetz/ta/math_TA.c:66
    1d54:	910083f3 	add	x19, sp, #0x20
    1d58:	d2800501 	mov	x1, #0x28                  	// #40
    1d5c:	aa1303e0 	mov	x0, x19
    1d60:	940032a3 	bl	e7ec <TEE_GenerateRandom>
    1d64:	d2800002 	mov	x2, #0x0                   	// #0
/home/avees/tee/darknetz/ta/math_TA.c:65
    1d68:	52800001 	mov	w1, #0x0                   	// #0
/home/avees/tee/darknetz/ta/math_TA.c:69 (discriminator 3)
    1d6c:	78627a60 	ldrh	w0, [x19, x2, lsl #1]
    1d70:	91000442 	add	x2, x2, #0x1
/home/avees/tee/darknetz/ta/math_TA.c:68 (discriminator 3)
    1d74:	f100505f 	cmp	x2, #0x14
/home/avees/tee/darknetz/ta/math_TA.c:70 (discriminator 3)
    1d78:	0b010001 	add	w1, w0, w1
/home/avees/tee/darknetz/ta/math_TA.c:68 (discriminator 3)
    1d7c:	54ffff81 	b.ne	1d6c <ta_rand+0x38>  // b.any
/home/avees/tee/darknetz/ta/math_TA.c:72
    1d80:	5284e202 	mov	w2, #0x2710                	// #10000
    1d84:	1ac20c20 	sdiv	w0, w1, w2
    1d88:	1b028400 	msub	w0, w0, w2, w1
    1d8c:	1e220000 	scvtf	s0, w0
    1d90:	52880000 	mov	w0, #0x4000                	// #16384
    1d94:	72a8c380 	movk	w0, #0x461c, lsl #16
    1d98:	1e270001 	fmov	s1, w0
/home/avees/tee/darknetz/ta/math_TA.c:79
    1d9c:	90000100 	adrp	x0, 21000 <_DYNAMIC>
    1da0:	f940b400 	ldr	x0, [x0, #360]
/home/avees/tee/darknetz/ta/math_TA.c:72
    1da4:	1e211800 	fdiv	s0, s0, s1
/home/avees/tee/darknetz/ta/math_TA.c:79
    1da8:	f94027e1 	ldr	x1, [sp, #72]
    1dac:	f9400002 	ldr	x2, [x0]
    1db0:	eb020021 	subs	x1, x1, x2
    1db4:	d2800002 	mov	x2, #0x0                   	// #0
    1db8:	54000040 	b.eq	1dc0 <ta_rand+0x8c>  // b.none
    1dbc:	940017d9 	bl	7d20 <__stack_chk_fail>
    1dc0:	f9400bf3 	ldr	x19, [sp, #16]
    1dc4:	a8c57bfd 	ldp	x29, x30, [sp], #80
    1dc8:	d65f03c0 	ret

0000000000001dcc <ta_floor>:
ta_floor():
/home/avees/tee/darknetz/ta/math_TA.c:96
    1dcc:	1e780001 	fcvtzs	w1, d0
    1dd0:	1e602018 	fcmpe	d0, #0.0
    1dd4:	1a9f57e0 	cset	w0, mi  // mi = first
/home/avees/tee/darknetz/ta/math_TA.c:97
    1dd8:	4b000020 	sub	w0, w1, w0
    1ddc:	d65f03c0 	ret

0000000000001de0 <ta_sqrt>:
ta_sqrt():
/home/avees/tee/darknetz/ta/math_TA.c:101
    1de0:	b00000e0 	adrp	x0, 1e000 <__text_end+0x4534>
/home/avees/tee/darknetz/ta/math_TA.c:100
    1de4:	1e604002 	fmov	d2, d0
/home/avees/tee/darknetz/ta/math_TA.c:101
    1de8:	fd466800 	ldr	d0, [x0, #3280]
    1dec:	1e602050 	fcmpe	d2, d0
    1df0:	5400012d 	b.le	1e14 <ta_sqrt+0x34>
    1df4:	1e601840 	fdiv	d0, d2, d0
/home/avees/tee/darknetz/ta/math_TA.c:100
    1df8:	a9bf7bfd 	stp	x29, x30, [sp, #-16]!
    1dfc:	910003fd 	mov	x29, sp
/home/avees/tee/darknetz/ta/math_TA.c:101
    1e00:	97fffff8 	bl	1de0 <ta_sqrt>
    1e04:	1e649001 	fmov	d1, #1.000000000000000000e+01
/home/avees/tee/darknetz/ta/math_TA.c:109
    1e08:	a8c17bfd 	ldp	x29, x30, [sp], #16
/home/avees/tee/darknetz/ta/math_TA.c:101
    1e0c:	1e610800 	fmul	d0, d0, d1
/home/avees/tee/darknetz/ta/math_TA.c:109
    1e10:	d65f03c0 	ret
/home/avees/tee/darknetz/ta/math_TA.c:102
    1e14:	1e621004 	fmov	d4, #4.000000000000000000e+00
    1e18:	1e622841 	fadd	d1, d2, d2
    1e1c:	1e681000 	fmov	d0, #1.250000000000000000e-01
    1e20:	1e6c1003 	fmov	d3, #5.000000000000000000e-01
    1e24:	1e642844 	fadd	d4, d2, d4
/home/avees/tee/darknetz/ta/math_TA.c:104
    1e28:	52800160 	mov	w0, #0xb                   	// #11
/home/avees/tee/darknetz/ta/math_TA.c:102
    1e2c:	1f400c40 	fmadd	d0, d2, d0, d3
    1e30:	1e641821 	fdiv	d1, d1, d4
    1e34:	1e602820 	fadd	d0, d1, d0
/home/avees/tee/darknetz/ta/math_TA.c:104
    1e38:	71000400 	subs	w0, w0, #0x1
    1e3c:	54000041 	b.ne	1e44 <ta_sqrt+0x64>  // b.any
    1e40:	d65f03c0 	ret
/home/avees/tee/darknetz/ta/math_TA.c:106
    1e44:	1e601841 	fdiv	d1, d2, d0
    1e48:	1e602821 	fadd	d1, d1, d0
    1e4c:	1e630820 	fmul	d0, d1, d3
    1e50:	17fffffa 	b	1e38 <ta_sqrt+0x58>

0000000000001e54 <F1>:
F1():
/home/avees/tee/darknetz/ta/math_TA.c:115
    1e54:	1e6e1001 	fmov	d1, #1.000000000000000000e+00
    1e58:	1e601820 	fdiv	d0, d1, d0
    1e5c:	d65f03c0 	ret

0000000000001e60 <F2>:
F2():
/home/avees/tee/darknetz/ta/math_TA.c:118
    1e60:	a9be7bfd 	stp	x29, x30, [sp, #-32]!
    1e64:	910003fd 	mov	x29, sp
    1e68:	fd000be8 	str	d8, [sp, #16]
/home/avees/tee/darknetz/ta/math_TA.c:119
    1e6c:	1e6e1008 	fmov	d8, #1.000000000000000000e+00
    1e70:	1f40a000 	fmsub	d0, d0, d0, d8
    1e74:	97ffffdb 	bl	1de0 <ta_sqrt>
/home/avees/tee/darknetz/ta/math_TA.c:120
    1e78:	1e601900 	fdiv	d0, d8, d0
    1e7c:	fd400be8 	ldr	d8, [sp, #16]
    1e80:	a8c27bfd 	ldp	x29, x30, [sp], #32
    1e84:	d65f03c0 	ret

0000000000001e88 <simpson>:
simpson():
/home/avees/tee/darknetz/ta/math_TA.c:123
    1e88:	a9bd7bfd 	stp	x29, x30, [sp, #-48]!
/home/avees/tee/darknetz/ta/math_TA.c:125
    1e8c:	7100041f 	cmp	w0, #0x1
/home/avees/tee/darknetz/ta/math_TA.c:123
    1e90:	910003fd 	mov	x29, sp
    1e94:	6d022fea 	stp	d10, d11, [sp, #32]
/home/avees/tee/darknetz/ta/math_TA.c:124
    1e98:	1e60382b 	fsub	d11, d1, d0
/home/avees/tee/darknetz/ta/math_TA.c:123
    1e9c:	1e60402a 	fmov	d10, d1
    1ea0:	6d0127e8 	stp	d8, d9, [sp, #16]
/home/avees/tee/darknetz/ta/math_TA.c:124
    1ea4:	1e6c1009 	fmov	d9, #5.000000000000000000e-01
    1ea8:	1f490169 	fmadd	d9, d11, d9, d0
/home/avees/tee/darknetz/ta/math_TA.c:125
    1eac:	54000221 	b.ne	1ef0 <simpson+0x68>  // b.any
/home/avees/tee/darknetz/ta/math_TA.c:126
    1eb0:	97ffffe9 	bl	1e54 <F1>
    1eb4:	1e604008 	fmov	d8, d0
    1eb8:	1e604120 	fmov	d0, d9
    1ebc:	97ffffe6 	bl	1e54 <F1>
    1ec0:	1e621001 	fmov	d1, #4.000000000000000000e+00
    1ec4:	1f412008 	fmadd	d8, d0, d1, d8
    1ec8:	1e604140 	fmov	d0, d10
    1ecc:	97ffffe2 	bl	1e54 <F1>
/home/avees/tee/darknetz/ta/math_TA.c:128
    1ed0:	1e602900 	fadd	d0, d8, d0
    1ed4:	1e631001 	fmov	d1, #6.000000000000000000e+00
    1ed8:	1e6b0800 	fmul	d0, d0, d11
    1edc:	1e611800 	fdiv	d0, d0, d1
/home/avees/tee/darknetz/ta/math_TA.c:129
    1ee0:	6d4127e8 	ldp	d8, d9, [sp, #16]
    1ee4:	6d422fea 	ldp	d10, d11, [sp, #32]
    1ee8:	a8c37bfd 	ldp	x29, x30, [sp], #48
    1eec:	d65f03c0 	ret
/home/avees/tee/darknetz/ta/math_TA.c:127
    1ef0:	7100081f 	cmp	w0, #0x2
    1ef4:	54ffff61 	b.ne	1ee0 <simpson+0x58>  // b.any
/home/avees/tee/darknetz/ta/math_TA.c:128
    1ef8:	97ffffda 	bl	1e60 <F2>
    1efc:	1e604008 	fmov	d8, d0
    1f00:	1e604120 	fmov	d0, d9
    1f04:	97ffffd7 	bl	1e60 <F2>
    1f08:	1e621001 	fmov	d1, #4.000000000000000000e+00
    1f0c:	1f412008 	fmadd	d8, d0, d1, d8
    1f10:	1e604140 	fmov	d0, d10
    1f14:	97ffffd3 	bl	1e60 <F2>
    1f18:	17ffffee 	b	1ed0 <simpson+0x48>

0000000000001f1c <asr>:
asr():
/home/avees/tee/darknetz/ta/math_TA.c:132
    1f1c:	a9ba7bfd 	stp	x29, x30, [sp, #-96]!
    1f20:	910003fd 	mov	x29, sp
    1f24:	6d032fea 	stp	d10, d11, [sp, #48]
/home/avees/tee/darknetz/ta/math_TA.c:133
    1f28:	1e60382b 	fsub	d11, d1, d0
/home/avees/tee/darknetz/ta/math_TA.c:132
    1f2c:	1e60402a 	fmov	d10, d1
    1f30:	6d053fee 	stp	d14, d15, [sp, #80]
/home/avees/tee/darknetz/ta/math_TA.c:133
    1f34:	1e6c100f 	fmov	d15, #5.000000000000000000e-01
    1f38:	1f4f016b 	fmadd	d11, d11, d15, d0
/home/avees/tee/darknetz/ta/math_TA.c:132
    1f3c:	6d0227e8 	stp	d8, d9, [sp, #32]
    1f40:	1e604049 	fmov	d9, d2
    1f44:	1e604068 	fmov	d8, d3
    1f48:	6d0437ec 	stp	d12, d13, [sp, #64]
    1f4c:	1e60400c 	fmov	d12, d0
    1f50:	f9000bf3 	str	x19, [sp, #16]
    1f54:	2a0003f3 	mov	w19, w0
/home/avees/tee/darknetz/ta/math_TA.c:134
    1f58:	1e604161 	fmov	d1, d11
    1f5c:	97ffffcb 	bl	1e88 <simpson>
    1f60:	1e60400e 	fmov	d14, d0
    1f64:	1e604141 	fmov	d1, d10
    1f68:	1e604160 	fmov	d0, d11
    1f6c:	2a1303e0 	mov	w0, w19
    1f70:	97ffffc6 	bl	1e88 <simpson>
/home/avees/tee/darknetz/ta/math_TA.c:135
    1f74:	1e6029c2 	fadd	d2, d14, d0
/home/avees/tee/darknetz/ta/math_TA.c:134
    1f78:	1e60400d 	fmov	d13, d0
/home/avees/tee/darknetz/ta/math_TA.c:135
    1f7c:	1e65d000 	fmov	d0, #1.500000000000000000e+01
    1f80:	1e600923 	fmul	d3, d9, d0
    1f84:	1e683844 	fsub	d4, d2, d8
    1f88:	1e602088 	fcmp	d4, #0.0
    1f8c:	1e614081 	fneg	d1, d4
    1f90:	1e64dc21 	fcsel	d1, d1, d4, le
    1f94:	1e612070 	fcmpe	d3, d1
    1f98:	5400014b 	b.lt	1fc0 <asr+0xa4>  // b.tstop
/home/avees/tee/darknetz/ta/math_TA.c:135 (discriminator 5)
    1f9c:	1e601880 	fdiv	d0, d4, d0
    1fa0:	1e622800 	fadd	d0, d0, d2
/home/avees/tee/darknetz/ta/math_TA.c:137
    1fa4:	f9400bf3 	ldr	x19, [sp, #16]
    1fa8:	6d4227e8 	ldp	d8, d9, [sp, #32]
    1fac:	6d432fea 	ldp	d10, d11, [sp, #48]
    1fb0:	6d4437ec 	ldp	d12, d13, [sp, #64]
    1fb4:	6d453fee 	ldp	d14, d15, [sp, #80]
    1fb8:	a8c67bfd 	ldp	x29, x30, [sp], #96
    1fbc:	d65f03c0 	ret
/home/avees/tee/darknetz/ta/math_TA.c:136
    1fc0:	1e6f0929 	fmul	d9, d9, d15
    1fc4:	1e6041c3 	fmov	d3, d14
    1fc8:	1e604161 	fmov	d1, d11
    1fcc:	1e604180 	fmov	d0, d12
    1fd0:	2a1303e0 	mov	w0, w19
    1fd4:	1e604122 	fmov	d2, d9
    1fd8:	97ffffd1 	bl	1f1c <asr>
    1fdc:	1e604008 	fmov	d8, d0
    1fe0:	1e6041a3 	fmov	d3, d13
    1fe4:	1e604122 	fmov	d2, d9
    1fe8:	1e604141 	fmov	d1, d10
    1fec:	1e604160 	fmov	d0, d11
    1ff0:	2a1303e0 	mov	w0, w19
    1ff4:	97ffffca 	bl	1f1c <asr>
    1ff8:	1e602900 	fadd	d0, d8, d0
    1ffc:	17ffffea 	b	1fa4 <asr+0x88>

0000000000002000 <asr0>:
asr0():
/home/avees/tee/darknetz/ta/math_TA.c:140
    2000:	a9bd7bfd 	stp	x29, x30, [sp, #-48]!
    2004:	910003fd 	mov	x29, sp
    2008:	fd000fea 	str	d10, [sp, #24]
    200c:	1e60404a 	fmov	d10, d2
    2010:	6d0227e8 	stp	d8, d9, [sp, #32]
    2014:	1e604008 	fmov	d8, d0
    2018:	1e604029 	fmov	d9, d1
    201c:	f9000bf3 	str	x19, [sp, #16]
    2020:	2a0003f3 	mov	w19, w0
/home/avees/tee/darknetz/ta/math_TA.c:141
    2024:	97ffff99 	bl	1e88 <simpson>
    2028:	1e604003 	fmov	d3, d0
    202c:	1e604142 	fmov	d2, d10
    2030:	1e604121 	fmov	d1, d9
    2034:	1e604100 	fmov	d0, d8
    2038:	2a1303e0 	mov	w0, w19
/home/avees/tee/darknetz/ta/math_TA.c:142
    203c:	f9400bf3 	ldr	x19, [sp, #16]
    2040:	fd400fea 	ldr	d10, [sp, #24]
    2044:	6d4227e8 	ldp	d8, d9, [sp, #32]
    2048:	a8c37bfd 	ldp	x29, x30, [sp], #48
/home/avees/tee/darknetz/ta/math_TA.c:141
    204c:	17ffffb4 	b	1f1c <asr>

0000000000002050 <ta_ln>:
ta_ln():
/home/avees/tee/darknetz/ta/math_TA.c:146
    2050:	900000e1 	adrp	x1, 1e000 <__text_end+0x4534>
    2054:	1e604001 	fmov	d1, d0
    2058:	1e6e1000 	fmov	d0, #1.000000000000000000e+00
    205c:	52800020 	mov	w0, #0x1                   	// #1
    2060:	fd466c22 	ldr	d2, [x1, #3288]
    2064:	17ffffe7 	b	2000 <asr0>

0000000000002068 <ta_log>:
ta_log():
/home/avees/tee/darknetz/ta/math_TA.c:150
    2068:	a9be7bfd 	stp	x29, x30, [sp, #-32]!
    206c:	910003fd 	mov	x29, sp
    2070:	6d0127e8 	stp	d8, d9, [sp, #16]
    2074:	1e604009 	fmov	d9, d0
    2078:	1e604020 	fmov	d0, d1
/home/avees/tee/darknetz/ta/math_TA.c:151
    207c:	97fffff5 	bl	2050 <ta_ln>
    2080:	1e604008 	fmov	d8, d0
    2084:	1e604120 	fmov	d0, d9
    2088:	97fffff2 	bl	2050 <ta_ln>
/home/avees/tee/darknetz/ta/math_TA.c:152
    208c:	1e601900 	fdiv	d0, d8, d0
    2090:	6d4127e8 	ldp	d8, d9, [sp, #16]
    2094:	a8c27bfd 	ldp	x29, x30, [sp], #32
    2098:	d65f03c0 	ret

000000000000209c <ta_cos>:
ta_cos():
/home/avees/tee/darknetz/ta/math_TA.c:175
    209c:	a9bd7bfd 	stp	x29, x30, [sp, #-48]!
/home/avees/tee/darknetz/ta/math_TA.c:177
    20a0:	900000e0 	adrp	x0, 1e000 <__text_end+0x4534>
/home/avees/tee/darknetz/ta/math_TA.c:175
    20a4:	910003fd 	mov	x29, sp
/home/avees/tee/darknetz/ta/math_TA.c:177
    20a8:	fd467001 	ldr	d1, [x0, #3296]
    20ac:	900000e0 	adrp	x0, 1e000 <__text_end+0x4534>
/home/avees/tee/darknetz/ta/math_TA.c:175
    20b0:	6d0127e8 	stp	d8, d9, [sp, #16]
    20b4:	1e604008 	fmov	d8, d0
    20b8:	fd467402 	ldr	d2, [x0, #3304]
/home/avees/tee/darknetz/ta/math_TA.c:177
    20bc:	1e612010 	fcmpe	d0, d1
/home/avees/tee/darknetz/ta/math_TA.c:175
    20c0:	6d022fea 	stp	d10, d11, [sp, #32]
/home/avees/tee/darknetz/ta/math_TA.c:177
    20c4:	540000ac 	b.gt	20d8 <ta_cos+0x3c>
/home/avees/tee/darknetz/ta/math_TA.c:177 (discriminator 2)
    20c8:	900000e0 	adrp	x0, 1e000 <__text_end+0x4534>
    20cc:	fd467800 	ldr	d0, [x0, #3312]
    20d0:	1e602110 	fcmpe	d8, d0
    20d4:	540000c5 	b.pl	20ec <ta_cos+0x50>  // b.nfrst
/home/avees/tee/darknetz/ta/math_TA.c:177 (discriminator 3)
    20d8:	1e611900 	fdiv	d0, d8, d1
    20dc:	1e780000 	fcvtzs	w0, d0
    20e0:	531f7800 	lsl	w0, w0, #1
    20e4:	1e620000 	scvtf	d0, w0
    20e8:	1f42a008 	fmsub	d8, d0, d2, d8
/home/avees/tee/darknetz/ta/math_TA.c:178
    20ec:	1e622110 	fcmpe	d8, d2
    20f0:	5400004d 	b.le	20f8 <ta_cos+0x5c>
/home/avees/tee/darknetz/ta/math_TA.c:178 (discriminator 1)
    20f4:	1e613908 	fsub	d8, d8, d1
/home/avees/tee/darknetz/ta/math_TA.c:179
    20f8:	900000e0 	adrp	x0, 1e000 <__text_end+0x4534>
    20fc:	fd467c00 	ldr	d0, [x0, #3320]
    2100:	1e602110 	fcmpe	d8, d0
    2104:	54000045 	b.pl	210c <ta_cos+0x70>  // b.nfrst
/home/avees/tee/darknetz/ta/math_TA.c:179 (discriminator 1)
    2108:	1e612908 	fadd	d8, d8, d1
/home/avees/tee/darknetz/ta/math_TA.c:180
    210c:	900000e0 	adrp	x0, 1e000 <__text_end+0x4534>
    2110:	fd468000 	ldr	d0, [x0, #3328]
    2114:	1e602110 	fcmpe	d8, d0
    2118:	5400024d 	b.le	2160 <ta_cos+0xc4>
/home/avees/tee/darknetz/ta/math_TA.c:182
    211c:	1e623908 	fsub	d8, d8, d2
/home/avees/tee/darknetz/ta/math_TA.c:183
    2120:	1e7e100a 	fmov	d10, #-1.000000000000000000e+00
/home/avees/tee/darknetz/ta/math_TA.c:185
    2124:	900000e0 	adrp	x0, 1e000 <__text_end+0x4534>
    2128:	fd468401 	ldr	d1, [x0, #3336]
    212c:	1e612110 	fcmpe	d8, d1
    2130:	54000065 	b.pl	213c <ta_cos+0xa0>  // b.nfrst
/home/avees/tee/darknetz/ta/math_TA.c:187
    2134:	1e622908 	fadd	d8, d8, d2
/home/avees/tee/darknetz/ta/math_TA.c:188
    2138:	1e61414a 	fneg	d10, d10
/home/avees/tee/darknetz/ta/math_TA.c:190
    213c:	900000e0 	adrp	x0, 1e000 <__text_end+0x4534>
    2140:	fd468801 	ldr	d1, [x0, #3344]
    2144:	1e612110 	fcmpe	d8, d1
    2148:	5400010d 	b.le	2168 <ta_cos+0xcc>
/home/avees/tee/darknetz/ta/math_TA.c:190 (discriminator 1)
    214c:	1e683800 	fsub	d0, d0, d8
/home/avees/tee/darknetz/ta/math_TA.c:192 (discriminator 1)
    2150:	6d4127e8 	ldp	d8, d9, [sp, #16]
    2154:	6d422fea 	ldp	d10, d11, [sp, #32]
    2158:	a8c37bfd 	ldp	x29, x30, [sp], #48
/home/avees/tee/darknetz/ta/math_TA.c:190 (discriminator 1)
    215c:	14000024 	b	21ec <ta_sin>
/home/avees/tee/darknetz/ta/math_TA.c:176
    2160:	1e6e100a 	fmov	d10, #1.000000000000000000e+00
    2164:	17fffff0 	b	2124 <ta_cos+0x88>
/home/avees/tee/darknetz/ta/math_TA.c:191
    2168:	1e604100 	fmov	d0, d8
    216c:	52800040 	mov	w0, #0x2                   	// #2
    2170:	97fffe9e 	bl	1be8 <ta_pow>
    2174:	1e6c100b 	fmov	d11, #5.000000000000000000e-01
    2178:	1e6e1009 	fmov	d9, #1.000000000000000000e+00
    217c:	52800080 	mov	w0, #0x4                   	// #4
    2180:	1f4ba40b 	fmsub	d11, d0, d11, d9
    2184:	1e604100 	fmov	d0, d8
    2188:	97fffe98 	bl	1be8 <ta_pow>
    218c:	1e671009 	fmov	d9, #2.400000000000000000e+01
    2190:	528000c0 	mov	w0, #0x6                   	// #6
    2194:	1e691809 	fdiv	d9, d0, d9
    2198:	1e604100 	fmov	d0, d8
    219c:	1e6b2929 	fadd	d9, d9, d11
    21a0:	97fffe92 	bl	1be8 <ta_pow>
    21a4:	d2d00000 	mov	x0, #0x800000000000        	// #140737488355328
    21a8:	f2e810c0 	movk	x0, #0x4086, lsl #48
    21ac:	9e670001 	fmov	d1, x0
    21b0:	52800100 	mov	w0, #0x8                   	// #8
    21b4:	1e611800 	fdiv	d0, d0, d1
    21b8:	1e603929 	fsub	d9, d9, d0
    21bc:	1e604100 	fmov	d0, d8
    21c0:	97fffe8a 	bl	1be8 <ta_pow>
    21c4:	d2d60000 	mov	x0, #0xb00000000000        	// #193514046488576
    21c8:	f2e81c60 	movk	x0, #0x40e3, lsl #48
    21cc:	9e670001 	fmov	d1, x0
    21d0:	1e611800 	fdiv	d0, d0, d1
    21d4:	1e692800 	fadd	d0, d0, d9
/home/avees/tee/darknetz/ta/math_TA.c:192
    21d8:	6d4127e8 	ldp	d8, d9, [sp, #16]
    21dc:	1e6a0800 	fmul	d0, d0, d10
    21e0:	6d422fea 	ldp	d10, d11, [sp, #32]
    21e4:	a8c37bfd 	ldp	x29, x30, [sp], #48
    21e8:	d65f03c0 	ret

00000000000021ec <ta_sin>:
ta_sin():
/home/avees/tee/darknetz/ta/math_TA.c:155
    21ec:	a9bd7bfd 	stp	x29, x30, [sp, #-48]!
/home/avees/tee/darknetz/ta/math_TA.c:157
    21f0:	900000e0 	adrp	x0, 1e000 <__text_end+0x4534>
/home/avees/tee/darknetz/ta/math_TA.c:155
    21f4:	910003fd 	mov	x29, sp
/home/avees/tee/darknetz/ta/math_TA.c:157
    21f8:	fd467001 	ldr	d1, [x0, #3296]
    21fc:	900000e0 	adrp	x0, 1e000 <__text_end+0x4534>
/home/avees/tee/darknetz/ta/math_TA.c:155
    2200:	6d0127e8 	stp	d8, d9, [sp, #16]
    2204:	1e604008 	fmov	d8, d0
    2208:	fd467402 	ldr	d2, [x0, #3304]
/home/avees/tee/darknetz/ta/math_TA.c:157
    220c:	1e612010 	fcmpe	d0, d1
/home/avees/tee/darknetz/ta/math_TA.c:155
    2210:	6d022fea 	stp	d10, d11, [sp, #32]
/home/avees/tee/darknetz/ta/math_TA.c:157
    2214:	540000ac 	b.gt	2228 <ta_sin+0x3c>
/home/avees/tee/darknetz/ta/math_TA.c:157 (discriminator 2)
    2218:	900000e0 	adrp	x0, 1e000 <__text_end+0x4534>
    221c:	fd467800 	ldr	d0, [x0, #3312]
    2220:	1e602110 	fcmpe	d8, d0
    2224:	540000c5 	b.pl	223c <ta_sin+0x50>  // b.nfrst
/home/avees/tee/darknetz/ta/math_TA.c:157 (discriminator 3)
    2228:	1e611900 	fdiv	d0, d8, d1
    222c:	1e780000 	fcvtzs	w0, d0
    2230:	531f7800 	lsl	w0, w0, #1
    2234:	1e620000 	scvtf	d0, w0
    2238:	1f42a008 	fmsub	d8, d0, d2, d8
/home/avees/tee/darknetz/ta/math_TA.c:158
    223c:	1e622110 	fcmpe	d8, d2
    2240:	5400004d 	b.le	2248 <ta_sin+0x5c>
/home/avees/tee/darknetz/ta/math_TA.c:158 (discriminator 1)
    2244:	1e613908 	fsub	d8, d8, d1
/home/avees/tee/darknetz/ta/math_TA.c:159
    2248:	900000e0 	adrp	x0, 1e000 <__text_end+0x4534>
    224c:	fd467c00 	ldr	d0, [x0, #3320]
    2250:	1e602110 	fcmpe	d8, d0
    2254:	54000045 	b.pl	225c <ta_sin+0x70>  // b.nfrst
/home/avees/tee/darknetz/ta/math_TA.c:159 (discriminator 1)
    2258:	1e612908 	fadd	d8, d8, d1
/home/avees/tee/darknetz/ta/math_TA.c:160
    225c:	900000e0 	adrp	x0, 1e000 <__text_end+0x4534>
    2260:	fd468000 	ldr	d0, [x0, #3328]
    2264:	1e602110 	fcmpe	d8, d0
    2268:	5400024d 	b.le	22b0 <ta_sin+0xc4>
/home/avees/tee/darknetz/ta/math_TA.c:162
    226c:	1e623908 	fsub	d8, d8, d2
/home/avees/tee/darknetz/ta/math_TA.c:163
    2270:	1e7e100b 	fmov	d11, #-1.000000000000000000e+00
/home/avees/tee/darknetz/ta/math_TA.c:165
    2274:	900000e0 	adrp	x0, 1e000 <__text_end+0x4534>
    2278:	fd468401 	ldr	d1, [x0, #3336]
    227c:	1e612110 	fcmpe	d8, d1
    2280:	54000065 	b.pl	228c <ta_sin+0xa0>  // b.nfrst
/home/avees/tee/darknetz/ta/math_TA.c:167
    2284:	1e622908 	fadd	d8, d8, d2
/home/avees/tee/darknetz/ta/math_TA.c:168
    2288:	1e61416b 	fneg	d11, d11
/home/avees/tee/darknetz/ta/math_TA.c:170
    228c:	900000e0 	adrp	x0, 1e000 <__text_end+0x4534>
    2290:	fd468801 	ldr	d1, [x0, #3344]
    2294:	1e612110 	fcmpe	d8, d1
    2298:	5400010d 	b.le	22b8 <ta_sin+0xcc>
/home/avees/tee/darknetz/ta/math_TA.c:170 (discriminator 1)
    229c:	1e683800 	fsub	d0, d0, d8
/home/avees/tee/darknetz/ta/math_TA.c:172 (discriminator 1)
    22a0:	6d4127e8 	ldp	d8, d9, [sp, #16]
    22a4:	6d422fea 	ldp	d10, d11, [sp, #32]
    22a8:	a8c37bfd 	ldp	x29, x30, [sp], #48
/home/avees/tee/darknetz/ta/math_TA.c:170 (discriminator 1)
    22ac:	17ffff7c 	b	209c <ta_cos>
/home/avees/tee/darknetz/ta/math_TA.c:156
    22b0:	1e6e100b 	fmov	d11, #1.000000000000000000e+00
    22b4:	17fffff0 	b	2274 <ta_sin+0x88>
/home/avees/tee/darknetz/ta/math_TA.c:171
    22b8:	1e604100 	fmov	d0, d8
    22bc:	52800060 	mov	w0, #0x3                   	// #3
    22c0:	97fffe4a 	bl	1be8 <ta_pow>
    22c4:	1e631009 	fmov	d9, #6.000000000000000000e+00
    22c8:	528000a0 	mov	w0, #0x5                   	// #5
    22cc:	1e691809 	fdiv	d9, d0, d9
    22d0:	1e604100 	fmov	d0, d8
    22d4:	1e69390a 	fsub	d10, d8, d9
    22d8:	97fffe44 	bl	1be8 <ta_pow>
    22dc:	d2e80bc0 	mov	x0, #0x405e000000000000    	// #4638144666238189568
    22e0:	9e670009 	fmov	d9, x0
    22e4:	528000e0 	mov	w0, #0x7                   	// #7
    22e8:	1e691809 	fdiv	d9, d0, d9
    22ec:	1e604100 	fmov	d0, d8
    22f0:	1e6a2929 	fadd	d9, d9, d10
    22f4:	97fffe3d 	bl	1be8 <ta_pow>
    22f8:	d2d60000 	mov	x0, #0xb00000000000        	// #193514046488576
    22fc:	f2e81660 	movk	x0, #0x40b3, lsl #48
    2300:	9e670001 	fmov	d1, x0
    2304:	52800120 	mov	w0, #0x9                   	// #9
    2308:	1e611800 	fdiv	d0, d0, d1
    230c:	1e603929 	fsub	d9, d9, d0
    2310:	1e604100 	fmov	d0, d8
    2314:	97fffe35 	bl	1be8 <ta_pow>
    2318:	d2c4c000 	mov	x0, #0x260000000000        	// #41781441855488
    231c:	f2e822c0 	movk	x0, #0x4116, lsl #48
    2320:	9e670001 	fmov	d1, x0
    2324:	1e611800 	fdiv	d0, d0, d1
    2328:	1e692800 	fadd	d0, d0, d9
/home/avees/tee/darknetz/ta/math_TA.c:172
    232c:	6d4127e8 	ldp	d8, d9, [sp, #16]
    2330:	1e6b0800 	fmul	d0, d0, d11
    2334:	6d422fea 	ldp	d10, d11, [sp, #32]
    2338:	a8c37bfd 	ldp	x29, x30, [sp], #48
    233c:	d65f03c0 	ret

0000000000002340 <ta_tan>:
ta_tan():
/home/avees/tee/darknetz/ta/math_TA.c:195
    2340:	a9be7bfd 	stp	x29, x30, [sp, #-32]!
    2344:	910003fd 	mov	x29, sp
    2348:	6d0127e8 	stp	d8, d9, [sp, #16]
    234c:	1e604009 	fmov	d9, d0
/home/avees/tee/darknetz/ta/math_TA.c:196
    2350:	97ffffa7 	bl	21ec <ta_sin>
    2354:	1e604008 	fmov	d8, d0
    2358:	1e604120 	fmov	d0, d9
    235c:	97ffff50 	bl	209c <ta_cos>
/home/avees/tee/darknetz/ta/math_TA.c:197
    2360:	1e601900 	fdiv	d0, d8, d0
    2364:	6d4127e8 	ldp	d8, d9, [sp, #16]
    2368:	a8c27bfd 	ldp	x29, x30, [sp], #32
    236c:	d65f03c0 	ret

0000000000002370 <reverse>:
reverse():
/home/avees/tee/darknetz/ta/math_TA.c:202
    2370:	51000421 	sub	w1, w1, #0x1
/home/avees/tee/darknetz/ta/math_TA.c:203
    2374:	d2800002 	mov	x2, #0x0                   	// #0
    2378:	93407c21 	sxtw	x1, w1
    237c:	6b01005f 	cmp	w2, w1
    2380:	5400004b 	b.lt	2388 <reverse+0x18>  // b.tstop
/home/avees/tee/darknetz/ta/math_TA.c:210
    2384:	d65f03c0 	ret
/home/avees/tee/darknetz/ta/math_TA.c:206
    2388:	38616804 	ldrb	w4, [x0, x1]
/home/avees/tee/darknetz/ta/math_TA.c:205
    238c:	38626803 	ldrb	w3, [x0, x2]
/home/avees/tee/darknetz/ta/math_TA.c:206
    2390:	38226804 	strb	w4, [x0, x2]
/home/avees/tee/darknetz/ta/math_TA.c:207
    2394:	91000442 	add	x2, x2, #0x1
    2398:	38216803 	strb	w3, [x0, x1]
/home/avees/tee/darknetz/ta/math_TA.c:208
    239c:	d1000421 	sub	x1, x1, #0x1
    23a0:	17fffff7 	b	237c <reverse+0xc>

00000000000023a4 <intToStr>:
intToStr():
/home/avees/tee/darknetz/ta/math_TA.c:216
    23a4:	a9bd7bfd 	stp	x29, x30, [sp, #-48]!
    23a8:	2a0003e4 	mov	w4, w0
/home/avees/tee/darknetz/ta/math_TA.c:218
    23ac:	d2800003 	mov	x3, #0x0                   	// #0
/home/avees/tee/darknetz/ta/math_TA.c:216
    23b0:	910003fd 	mov	x29, sp
    23b4:	a90153f3 	stp	x19, x20, [sp, #16]
    23b8:	aa0103f4 	mov	x20, x1
/home/avees/tee/darknetz/ta/math_TA.c:220
    23bc:	52800141 	mov	w1, #0xa                   	// #10
/home/avees/tee/darknetz/ta/math_TA.c:216
    23c0:	f90013f5 	str	x21, [sp, #32]
    23c4:	2a0303e0 	mov	w0, w3
/home/avees/tee/darknetz/ta/math_TA.c:218
    23c8:	350002a4 	cbnz	w4, 241c <intToStr+0x78>
    23cc:	93407c73 	sxtw	x19, w3
/home/avees/tee/darknetz/ta/math_TA.c:227
    23d0:	52800604 	mov	w4, #0x30                  	// #48
/home/avees/tee/darknetz/ta/math_TA.c:218
    23d4:	aa1303e1 	mov	x1, x19
/home/avees/tee/darknetz/ta/math_TA.c:226
    23d8:	6b01005f 	cmp	w2, w1
    23dc:	540002ec 	b.gt	2438 <intToStr+0x94>
    23e0:	6b02001f 	cmp	w0, w2
    23e4:	4b030043 	sub	w3, w2, w3
    23e8:	1a9fd075 	csel	w21, w3, wzr, le
    23ec:	9a9fd063 	csel	x3, x3, xzr, le
    23f0:	8b130073 	add	x19, x3, x19
/home/avees/tee/darknetz/ta/math_TA.c:229
    23f4:	0b0002b5 	add	w21, w21, w0
    23f8:	2a1503e1 	mov	w1, w21
    23fc:	aa1403e0 	mov	x0, x20
    2400:	97ffffdc 	bl	2370 <reverse>
/home/avees/tee/darknetz/ta/math_TA.c:230
    2404:	38336a9f 	strb	wzr, [x20, x19]
/home/avees/tee/darknetz/ta/math_TA.c:232
    2408:	2a1503e0 	mov	w0, w21
    240c:	a94153f3 	ldp	x19, x20, [sp, #16]
    2410:	f94013f5 	ldr	x21, [sp, #32]
    2414:	a8c37bfd 	ldp	x29, x30, [sp], #48
    2418:	d65f03c0 	ret
/home/avees/tee/darknetz/ta/math_TA.c:220
    241c:	1ac10c80 	sdiv	w0, w4, w1
    2420:	1b019004 	msub	w4, w0, w1, w4
    2424:	1100c084 	add	w4, w4, #0x30
    2428:	38236a84 	strb	w4, [x20, x3]
/home/avees/tee/darknetz/ta/math_TA.c:221
    242c:	2a0003e4 	mov	w4, w0
    2430:	91000463 	add	x3, x3, #0x1
    2434:	17ffffe4 	b	23c4 <intToStr+0x20>
/home/avees/tee/darknetz/ta/math_TA.c:227
    2438:	38216a84 	strb	w4, [x20, x1]
    243c:	91000421 	add	x1, x1, #0x1
    2440:	17ffffe6 	b	23d8 <intToStr+0x34>

0000000000002444 <ftoa>:
ftoa():
/home/avees/tee/darknetz/ta/math_TA.c:236
    2444:	a9bc7bfd 	stp	x29, x30, [sp, #-64]!
/home/avees/tee/darknetz/ta/math_TA.c:239
    2448:	1e202018 	fcmpe	s0, #0.0
/home/avees/tee/darknetz/ta/math_TA.c:236
    244c:	910003fd 	mov	x29, sp
    2450:	a90153f3 	stp	x19, x20, [sp, #16]
    2454:	aa0003f4 	mov	x20, x0
    2458:	a9025bf5 	stp	x21, x22, [sp, #32]
    245c:	2a0103f5 	mov	w21, w1
    2460:	fd001be8 	str	d8, [sp, #48]
    2464:	1e204008 	fmov	s8, s0
/home/avees/tee/darknetz/ta/math_TA.c:239
    2468:	54000045 	b.pl	2470 <ftoa+0x2c>  // b.nfrst
/home/avees/tee/darknetz/ta/math_TA.c:240
    246c:	1e214008 	fneg	s8, s0
/home/avees/tee/darknetz/ta/math_TA.c:246
    2470:	1e380116 	fcvtzs	w22, s8
/home/avees/tee/darknetz/ta/math_TA.c:252
    2474:	aa1403e1 	mov	x1, x20
    2478:	52800002 	mov	w2, #0x0                   	// #0
    247c:	2a1603e0 	mov	w0, w22
    2480:	97ffffc9 	bl	23a4 <intToStr>
/home/avees/tee/darknetz/ta/math_TA.c:255
    2484:	340002b5 	cbz	w21, 24d8 <ftoa+0x94>
/home/avees/tee/darknetz/ta/math_TA.c:257
    2488:	93407c13 	sxtw	x19, w0
/home/avees/tee/darknetz/ta/math_TA.c:262
    248c:	1e649000 	fmov	d0, #1.000000000000000000e+01
/home/avees/tee/darknetz/ta/math_TA.c:257
    2490:	528005c0 	mov	w0, #0x2e                  	// #46
    2494:	38336a80 	strb	w0, [x20, x19]
/home/avees/tee/darknetz/ta/math_TA.c:262
    2498:	2a1503e0 	mov	w0, w21
/home/avees/tee/darknetz/ta/math_TA.c:264
    249c:	91000673 	add	x19, x19, #0x1
/home/avees/tee/darknetz/ta/math_TA.c:262
    24a0:	97fffdd2 	bl	1be8 <ta_pow>
/home/avees/tee/darknetz/ta/math_TA.c:249
    24a4:	1e2202c1 	scvtf	s1, w22
/home/avees/tee/darknetz/ta/math_TA.c:264
    24a8:	2a1503e2 	mov	w2, w21
    24ac:	8b130281 	add	x1, x20, x19
/home/avees/tee/darknetz/ta/math_TA.c:266
    24b0:	a94153f3 	ldp	x19, x20, [sp, #16]
/home/avees/tee/darknetz/ta/math_TA.c:249
    24b4:	1e213908 	fsub	s8, s8, s1
/home/avees/tee/darknetz/ta/math_TA.c:266
    24b8:	a9425bf5 	ldp	x21, x22, [sp, #32]
/home/avees/tee/darknetz/ta/math_TA.c:262
    24bc:	1e22c108 	fcvt	d8, s8
    24c0:	1e600908 	fmul	d8, d8, d0
    24c4:	1e624108 	fcvt	s8, d8
/home/avees/tee/darknetz/ta/math_TA.c:264
    24c8:	1e380100 	fcvtzs	w0, s8
/home/avees/tee/darknetz/ta/math_TA.c:266
    24cc:	fd401be8 	ldr	d8, [sp, #48]
    24d0:	a8c47bfd 	ldp	x29, x30, [sp], #64
/home/avees/tee/darknetz/ta/math_TA.c:264
    24d4:	17ffffb4 	b	23a4 <intToStr>
/home/avees/tee/darknetz/ta/math_TA.c:266
    24d8:	a94153f3 	ldp	x19, x20, [sp, #16]
    24dc:	a9425bf5 	ldp	x21, x22, [sp, #32]
    24e0:	fd401be8 	ldr	d8, [sp, #48]
    24e4:	a8c47bfd 	ldp	x29, x30, [sp], #64
    24e8:	d65f03c0 	ret

00000000000024ec <bubble_sort_top>:
bubble_sort_top():
/home/avees/tee/darknetz/ta/math_TA.c:274
    24ec:	51000421 	sub	w1, w1, #0x1
    24f0:	2a0103e3 	mov	w3, w1
/home/avees/tee/darknetz/ta/math_TA.c:274 (discriminator 1)
    24f4:	4b030022 	sub	w2, w1, w3
    24f8:	6b02003f 	cmp	w1, w2
    24fc:	540001cd 	b.le	2534 <bubble_sort_top+0x48>
    2500:	aa0003e2 	mov	x2, x0
/home/avees/tee/darknetz/ta/math_TA.c:275
    2504:	52800004 	mov	w4, #0x0                   	// #0
    2508:	14000007 	b	2524 <bubble_sort_top+0x38>
/home/avees/tee/darknetz/ta/math_TA.c:276
    250c:	2d400440 	ldp	s0, s1, [x2]
    2510:	1e212010 	fcmpe	s0, s1
    2514:	54000045 	b.pl	251c <bubble_sort_top+0x30>  // b.nfrst
/home/avees/tee/darknetz/ta/math_TA.c:279
    2518:	2d000041 	stp	s1, s0, [x2]
/home/avees/tee/darknetz/ta/math_TA.c:275 (discriminator 2)
    251c:	11000484 	add	w4, w4, #0x1
    2520:	91001042 	add	x2, x2, #0x4
/home/avees/tee/darknetz/ta/math_TA.c:275 (discriminator 1)
    2524:	6b03009f 	cmp	w4, w3
    2528:	54ffff2b 	b.lt	250c <bubble_sort_top+0x20>  // b.tstop
/home/avees/tee/darknetz/ta/math_TA.c:274 (discriminator 2)
    252c:	51000463 	sub	w3, w3, #0x1
    2530:	17fffff1 	b	24f4 <bubble_sort_top+0x8>
/home/avees/tee/darknetz/ta/math_TA.c:283
    2534:	d65f03c0 	ret

0000000000002538 <aes_cbc_TA>:
aes_cbc_TA():
/home/avees/tee/darknetz/ta/parser_TA.c:14
    2538:	a9ab7bfd 	stp	x29, x30, [sp, #-336]!
    253c:	f00000e3 	adrp	x3, 21000 <_DYNAMIC>
/home/avees/tee/darknetz/ta/parser_TA.c:15
    2540:	b00000e4 	adrp	x4, 1f000 <base64_table+0x24>
/home/avees/tee/darknetz/ta/parser_TA.c:14
    2544:	910003fd 	mov	x29, sp
    2548:	f940b463 	ldr	x3, [x3, #360]
    254c:	a90153f3 	stp	x19, x20, [sp, #16]
    2550:	2a0203f3 	mov	w19, w2
    2554:	a9025bf5 	stp	x21, x22, [sp, #32]
    2558:	aa0003f5 	mov	x21, x0
    255c:	f9400060 	ldr	x0, [x3]
    2560:	f900a7a0 	str	x0, [x29, #328]
    2564:	d2800000 	mov	x0, #0x0                   	// #0
    2568:	aa0103f4 	mov	x20, x1
/home/avees/tee/darknetz/ta/parser_TA.c:15
    256c:	52800023 	mov	w3, #0x1                   	// #1
    2570:	aa1503e5 	mov	x5, x21
    2574:	9111c884 	add	x4, x4, #0x472
    2578:	52800042 	mov	w2, #0x2                   	// #2
    257c:	528001e1 	mov	w1, #0xf                   	// #15
    2580:	b00000e0 	adrp	x0, 1f000 <base64_table+0x24>
    2584:	91125400 	add	x0, x0, #0x495
/home/avees/tee/darknetz/ta/parser_TA.c:14
    2588:	a90363f7 	stp	x23, x24, [sp, #48]
    258c:	a9046bf9 	stp	x25, x26, [sp, #64]
    2590:	f9002bfb 	str	x27, [sp, #80]
    2594:	d10043ff 	sub	sp, sp, #0x10
/home/avees/tee/darknetz/ta/parser_TA.c:15
    2598:	940016e2 	bl	8120 <trace_printf>
/home/avees/tee/darknetz/ta/parser_TA.c:18
    259c:	531e7663 	lsl	w3, w19, #2
    25a0:	93407c63 	sxtw	x3, w3
    25a4:	91003c63 	add	x3, x3, #0xf
    25a8:	927cec60 	and	x0, x3, #0xfffffffffffffff0
    25ac:	9270bc63 	and	x3, x3, #0xffffffffffff0000
    25b0:	cb2363e3 	sub	x3, sp, x3
    25b4:	eb2363ff 	cmp	sp, x3
    25b8:	54000080 	b.eq	25c8 <aes_cbc_TA+0x90>  // b.none
    25bc:	d14043ff 	sub	sp, sp, #0x10, lsl #12
    25c0:	f90203ff 	str	xzr, [sp, #1024]
    25c4:	17fffffc 	b	25b4 <aes_cbc_TA+0x7c>
    25c8:	92403c00 	and	x0, x0, #0xffff
    25cc:	cb2063ff 	sub	sp, sp, x0
    25d0:	f110001f 	cmp	x0, #0x400
    25d4:	f90003ff 	str	xzr, [sp]
    25d8:	54000043 	b.cc	25e0 <aes_cbc_TA+0xa8>  // b.lo, b.ul, b.last
    25dc:	f90203ff 	str	xzr, [sp, #1024]
    25e0:	910043f7 	add	x23, sp, #0x10
/home/avees/tee/darknetz/ta/parser_TA.c:19
    25e4:	aa1403e2 	mov	x2, x20
    25e8:	aa1703e3 	mov	x3, x23
    25ec:	52800001 	mov	w1, #0x0                   	// #0
/home/avees/tee/darknetz/ta/parser_TA.c:19 (discriminator 1)
    25f0:	6b13003f 	cmp	w1, w19
    25f4:	540005cb 	b.lt	26ac <aes_cbc_TA+0x174>  // b.tstop
/home/avees/tee/darknetz/ta/parser_TA.c:29
    25f8:	d2802000 	mov	x0, #0x100                 	// #256
/home/avees/tee/darknetz/ta/parser_TA.c:27
    25fc:	52800098 	mov	w24, #0x4                   	// #4
/home/avees/tee/darknetz/ta/parser_TA.c:29
    2600:	f2a06040 	movk	x0, #0x302, lsl #16
/home/avees/tee/darknetz/ta/parser_TA.c:33
    2604:	9101a3b9 	add	x25, x29, #0x68
/home/avees/tee/darknetz/ta/parser_TA.c:29
    2608:	f2c0a080 	movk	x0, #0x504, lsl #32
/home/avees/tee/darknetz/ta/parser_TA.c:36
    260c:	b00000fa 	adrp	x26, 1f000 <base64_table+0x24>
/home/avees/tee/darknetz/ta/parser_TA.c:29
    2610:	f2e0e0c0 	movk	x0, #0x706, lsl #48
    2614:	f90097a0 	str	x0, [x29, #296]
    2618:	d2812100 	mov	x0, #0x908                 	// #2312
/home/avees/tee/darknetz/ta/parser_TA.c:38
    261c:	b00000fb 	adrp	x27, 1f000 <base64_table+0x24>
/home/avees/tee/darknetz/ta/parser_TA.c:29
    2620:	f2a16140 	movk	x0, #0xb0a, lsl #16
/home/avees/tee/darknetz/ta/parser_TA.c:33
    2624:	9104a3a2 	add	x2, x29, #0x128
/home/avees/tee/darknetz/ta/parser_TA.c:29
    2628:	f2c1a180 	movk	x0, #0xd0c, lsl #32
/home/avees/tee/darknetz/ta/parser_TA.c:33
    262c:	9104e3a1 	add	x1, x29, #0x138
/home/avees/tee/darknetz/ta/parser_TA.c:29
    2630:	f2e1e1c0 	movk	x0, #0xf0e, lsl #48
    2634:	f9009ba0 	str	x0, [x29, #304]
/home/avees/tee/darknetz/ta/parser_TA.c:30
    2638:	d28fc560 	mov	x0, #0x7e2b                	// #32299
/home/avees/tee/darknetz/ta/parser_TA.c:36
    263c:	9112175a 	add	x26, x26, #0x485
/home/avees/tee/darknetz/ta/parser_TA.c:30
    2640:	f2a2c2a0 	movk	x0, #0x1615, lsl #16
/home/avees/tee/darknetz/ta/parser_TA.c:38
    2644:	9112377b 	add	x27, x27, #0x48d
/home/avees/tee/darknetz/ta/parser_TA.c:30
    2648:	f2d5c500 	movk	x0, #0xae28, lsl #32
/home/avees/tee/darknetz/ta/parser_TA.c:34
    264c:	52800016 	mov	w22, #0x0                   	// #0
/home/avees/tee/darknetz/ta/parser_TA.c:27
    2650:	1ad80e78 	sdiv	w24, w19, w24
/home/avees/tee/darknetz/ta/parser_TA.c:30
    2654:	f2f4da40 	movk	x0, #0xa6d2, lsl #48
    2658:	f9009fa0 	str	x0, [x29, #312]
    265c:	d29ef560 	mov	x0, #0xf7ab                	// #63403
    2660:	f2b102a0 	movk	x0, #0x8815, lsl #16
    2664:	f2d9e120 	movk	x0, #0xcf09, lsl #32
    2668:	f2e789e0 	movk	x0, #0x3c4f, lsl #48
    266c:	f900a3a0 	str	x0, [x29, #320]
/home/avees/tee/darknetz/ta/parser_TA.c:33
    2670:	aa1903e0 	mov	x0, x25
    2674:	940008df 	bl	49f0 <AES_init_ctx_iv>
/home/avees/tee/darknetz/ta/parser_TA.c:34 (discriminator 1)
    2678:	6b1802df 	cmp	w22, w24
    267c:	540002cb 	b.lt	26d4 <aes_cbc_TA+0x19c>  // b.tstop
    2680:	d2800000 	mov	x0, #0x0                   	// #0
/home/avees/tee/darknetz/ta/parser_TA.c:44 (discriminator 1)
    2684:	6b00027f 	cmp	w19, w0
    2688:	5400054c 	b.gt	2730 <aes_cbc_TA+0x1f8>
/home/avees/tee/darknetz/ta/parser_TA.c:47
    268c:	f00000e3 	adrp	x3, 21000 <_DYNAMIC>
    2690:	f940b463 	ldr	x3, [x3, #360]
    2694:	f940a7a0 	ldr	x0, [x29, #328]
    2698:	f9400061 	ldr	x1, [x3]
    269c:	eb010000 	subs	x0, x0, x1
    26a0:	d2800001 	mov	x1, #0x0                   	// #0
    26a4:	540004e0 	b.eq	2740 <aes_cbc_TA+0x208>  // b.none
    26a8:	9400159e 	bl	7d20 <__stack_chk_fail>
    26ac:	d2800000 	mov	x0, #0x0                   	// #0
/home/avees/tee/darknetz/ta/parser_TA.c:22 (discriminator 3)
    26b0:	38606844 	ldrb	w4, [x2, x0]
    26b4:	38206864 	strb	w4, [x3, x0]
/home/avees/tee/darknetz/ta/parser_TA.c:21 (discriminator 3)
    26b8:	91000400 	add	x0, x0, #0x1
    26bc:	f100101f 	cmp	x0, #0x4
    26c0:	54ffff81 	b.ne	26b0 <aes_cbc_TA+0x178>  // b.any
/home/avees/tee/darknetz/ta/parser_TA.c:19 (discriminator 2)
    26c4:	11000421 	add	w1, w1, #0x1
    26c8:	91001042 	add	x2, x2, #0x4
    26cc:	91001063 	add	x3, x3, #0x4
    26d0:	17ffffc8 	b	25f0 <aes_cbc_TA+0xb8>
/home/avees/tee/darknetz/ta/parser_TA.c:36
    26d4:	aa1a03e1 	mov	x1, x26
    26d8:	aa1503e0 	mov	x0, x21
    26dc:	d2800042 	mov	x2, #0x2                   	// #2
    26e0:	940015ac 	bl	7d90 <strncmp>
    26e4:	35000100 	cbnz	w0, 2704 <aes_cbc_TA+0x1cc>
/home/avees/tee/darknetz/ta/parser_TA.c:37
    26e8:	531c6ec1 	lsl	w1, w22, #4
    26ec:	aa1903e0 	mov	x0, x25
    26f0:	8b0102e1 	add	x1, x23, x1
    26f4:	52800202 	mov	w2, #0x10                  	// #16
    26f8:	940008d3 	bl	4a44 <AES_CBC_encrypt_buffer>
/home/avees/tee/darknetz/ta/parser_TA.c:34 (discriminator 2)
    26fc:	110006d6 	add	w22, w22, #0x1
    2700:	17ffffde 	b	2678 <aes_cbc_TA+0x140>
/home/avees/tee/darknetz/ta/parser_TA.c:38
    2704:	aa1b03e1 	mov	x1, x27
    2708:	aa1503e0 	mov	x0, x21
    270c:	d2800042 	mov	x2, #0x2                   	// #2
    2710:	940015a0 	bl	7d90 <strncmp>
    2714:	35ffff40 	cbnz	w0, 26fc <aes_cbc_TA+0x1c4>
/home/avees/tee/darknetz/ta/parser_TA.c:39
    2718:	531c6ec1 	lsl	w1, w22, #4
    271c:	aa1903e0 	mov	x0, x25
    2720:	8b0102e1 	add	x1, x23, x1
    2724:	52800202 	mov	w2, #0x10                  	// #16
    2728:	940008ea 	bl	4ad0 <AES_CBC_decrypt_buffer>
    272c:	17fffff4 	b	26fc <aes_cbc_TA+0x1c4>
/home/avees/tee/darknetz/ta/parser_TA.c:45 (discriminator 3)
    2730:	bc607ae0 	ldr	s0, [x23, x0, lsl #2]
    2734:	bc207a80 	str	s0, [x20, x0, lsl #2]
/home/avees/tee/darknetz/ta/parser_TA.c:44 (discriminator 3)
    2738:	91000400 	add	x0, x0, #0x1
    273c:	17ffffd2 	b	2684 <aes_cbc_TA+0x14c>
/home/avees/tee/darknetz/ta/parser_TA.c:47
    2740:	910003bf 	mov	sp, x29
    2744:	a94153f3 	ldp	x19, x20, [sp, #16]
    2748:	a9425bf5 	ldp	x21, x22, [sp, #32]
    274c:	a94363f7 	ldp	x23, x24, [sp, #48]
    2750:	a9446bf9 	ldp	x25, x26, [sp, #64]
    2754:	f9402bfb 	ldr	x27, [sp, #80]
    2758:	a8d57bfd 	ldp	x29, x30, [sp], #336
    275c:	d65f03c0 	ret

0000000000002760 <transpose_matrix_TA>:
transpose_matrix_TA():
/home/avees/tee/darknetz/ta/parser_TA.c:50
    2760:	a9bc7bfd 	stp	x29, x30, [sp, #-64]!
    2764:	910003fd 	mov	x29, sp
    2768:	f9001bf7 	str	x23, [sp, #48]
/home/avees/tee/darknetz/ta/parser_TA.c:51
    276c:	1b027c37 	mul	w23, w1, w2
/home/avees/tee/darknetz/ta/parser_TA.c:50
    2770:	a90153f3 	stp	x19, x20, [sp, #16]
    2774:	2a0103f4 	mov	w20, w1
/home/avees/tee/darknetz/ta/parser_TA.c:51
    2778:	d2800081 	mov	x1, #0x4                   	// #4
    277c:	93407ef7 	sxtw	x23, w23
/home/avees/tee/darknetz/ta/parser_TA.c:50
    2780:	a9025bf5 	stp	x21, x22, [sp, #32]
    2784:	2a0203f5 	mov	w21, w2
    2788:	aa0003f6 	mov	x22, x0
/home/avees/tee/darknetz/ta/parser_TA.c:51
    278c:	aa1703e0 	mov	x0, x23
    2790:	9400146e 	bl	7948 <calloc>
    2794:	aa0003f3 	mov	x19, x0
/home/avees/tee/darknetz/ta/parser_TA.c:53
    2798:	52800002 	mov	w2, #0x0                   	// #0
    279c:	d2800001 	mov	x1, #0x0                   	// #0
/home/avees/tee/darknetz/ta/parser_TA.c:53 (discriminator 1)
    27a0:	6b01029f 	cmp	w20, w1
    27a4:	540001cd 	b.le	27dc <transpose_matrix_TA+0x7c>
    27a8:	8b010a63 	add	x3, x19, x1, lsl #2
    27ac:	8b22cac4 	add	x4, x22, w2, sxtw #2
/home/avees/tee/darknetz/ta/parser_TA.c:53
    27b0:	d2800000 	mov	x0, #0x0                   	// #0
    27b4:	14000005 	b	27c8 <transpose_matrix_TA+0x68>
/home/avees/tee/darknetz/ta/parser_TA.c:55 (discriminator 3)
    27b8:	bc607880 	ldr	s0, [x4, x0, lsl #2]
    27bc:	91000400 	add	x0, x0, #0x1
    27c0:	bd000060 	str	s0, [x3]
/home/avees/tee/darknetz/ta/parser_TA.c:54 (discriminator 3)
    27c4:	8b34c863 	add	x3, x3, w20, sxtw #2
/home/avees/tee/darknetz/ta/parser_TA.c:54 (discriminator 1)
    27c8:	6b0002bf 	cmp	w21, w0
    27cc:	54ffff6c 	b.gt	27b8 <transpose_matrix_TA+0x58>
/home/avees/tee/darknetz/ta/parser_TA.c:53 (discriminator 2)
    27d0:	91000421 	add	x1, x1, #0x1
    27d4:	0b150042 	add	w2, w2, w21
    27d8:	17fffff2 	b	27a0 <transpose_matrix_TA+0x40>
/home/avees/tee/darknetz/ta/parser_TA.c:58
    27dc:	d37ef6e2 	lsl	x2, x23, #2
    27e0:	aa1303e1 	mov	x1, x19
    27e4:	aa1603e0 	mov	x0, x22
    27e8:	97fff60e 	bl	20 <memcpy>
/home/avees/tee/darknetz/ta/parser_TA.c:59
    27ec:	aa1303e0 	mov	x0, x19
/home/avees/tee/darknetz/ta/parser_TA.c:60
    27f0:	a94153f3 	ldp	x19, x20, [sp, #16]
    27f4:	a9425bf5 	ldp	x21, x22, [sp, #32]
    27f8:	f9401bf7 	ldr	x23, [sp, #48]
    27fc:	a8c47bfd 	ldp	x29, x30, [sp], #64
/home/avees/tee/darknetz/ta/parser_TA.c:59
    2800:	1400146c 	b	79b0 <free>

0000000000002804 <load_weights_TA>:
load_weights_TA():
/home/avees/tee/darknetz/ta/parser_TA.c:64
    2804:	a9b97bfd 	stp	x29, x30, [sp, #-112]!
    2808:	910003fd 	mov	x29, sp
    280c:	a90153f3 	stp	x19, x20, [sp, #16]
    2810:	12001c74 	and	w20, w3, #0xff
    2814:	a9025bf5 	stp	x21, x22, [sp, #32]
    2818:	2a0203f5 	mov	w21, w2
    281c:	aa0003f6 	mov	x22, x0
/home/avees/tee/darknetz/ta/parser_TA.c:66
    2820:	937e7c20 	sbfiz	x0, x1, #2, #32
/home/avees/tee/darknetz/ta/parser_TA.c:64
    2824:	a90363f7 	stp	x23, x24, [sp, #48]
    2828:	a9046bf9 	stp	x25, x26, [sp, #64]
    282c:	a90573fb 	stp	x27, x28, [sp, #80]
    2830:	2a0103fc 	mov	w28, w1
    2834:	b9006fe4 	str	w4, [sp, #108]
/home/avees/tee/darknetz/ta/parser_TA.c:66
    2838:	9400143e 	bl	7930 <malloc>
/home/avees/tee/darknetz/ta/parser_TA.c:67
    283c:	aa1603e1 	mov	x1, x22
    2840:	aa0003e3 	mov	x3, x0
    2844:	52800024 	mov	w4, #0x1                   	// #1
/home/avees/tee/darknetz/ta/parser_TA.c:66
    2848:	aa0003f3 	mov	x19, x0
/home/avees/tee/darknetz/ta/parser_TA.c:67
    284c:	2a0403e2 	mov	w2, w4
    2850:	2a1c03e0 	mov	w0, w28
    2854:	94000269 	bl	31f8 <copy_cpu_TA>
/home/avees/tee/darknetz/ta/parser_TA.c:71
    2858:	f00000e0 	adrp	x0, 21000 <_DYNAMIC>
    285c:	52809102 	mov	w2, #0x488                 	// #1160
/home/avees/tee/darknetz/ta/parser_TA.c:73
    2860:	71018a9f 	cmp	w20, #0x62
/home/avees/tee/darknetz/ta/parser_TA.c:71
    2864:	f9410c00 	ldr	x0, [x0, #536]
    2868:	9b227ea2 	smull	x2, w21, w2
    286c:	f9401001 	ldr	x1, [x0, #32]
    2870:	8b020020 	add	x0, x1, x2
    2874:	b8626837 	ldr	w23, [x1, x2]
    2878:	2947e401 	ldp	w1, w25, [x0, #60]
    287c:	b9006be1 	str	w1, [sp, #104]
    2880:	b940441a 	ldr	w26, [x0, #68]
    2884:	b9406016 	ldr	w22, [x0, #96]
    2888:	b940701b 	ldr	w27, [x0, #112]
    288c:	b9407c18 	ldr	w24, [x0, #124]
    2890:	f9411c15 	ldr	x21, [x0, #568]
/home/avees/tee/darknetz/ta/parser_TA.c:73
    2894:	54000341 	b.ne	28fc <load_weights_TA+0xf8>  // b.any
/home/avees/tee/darknetz/ta/parser_TA.c:74
    2898:	f9410c03 	ldr	x3, [x0, #536]
    289c:	52800024 	mov	w4, #0x1                   	// #1
/home/avees/tee/darknetz/ta/parser_TA.c:86
    28a0:	2a0403e2 	mov	w2, w4
    28a4:	aa1303e1 	mov	x1, x19
    28a8:	2a1c03e0 	mov	w0, w28
    28ac:	94000253 	bl	31f8 <copy_cpu_TA>
/home/avees/tee/darknetz/ta/parser_TA.c:90
    28b0:	710006ff 	cmp	w23, #0x1
    28b4:	540004c8 	b.hi	294c <load_weights_TA+0x148>  // b.pmore
/home/avees/tee/darknetz/ta/parser_TA.c:91
    28b8:	b9406be0 	ldr	w0, [sp, #104]
    28bc:	34000100 	cbz	w0, 28dc <load_weights_TA+0xd8>
/home/avees/tee/darknetz/ta/parser_TA.c:91 (discriminator 1)
    28c0:	7101de9f 	cmp	w20, #0x77
    28c4:	540000c1 	b.ne	28dc <load_weights_TA+0xd8>  // b.any
/home/avees/tee/darknetz/ta/parser_TA.c:92
    28c8:	1b187ec1 	mul	w1, w22, w24
    28cc:	2a1b03e2 	mov	w2, w27
    28d0:	1b187c21 	mul	w1, w1, w24
/home/avees/tee/darknetz/ta/parser_TA.c:97
    28d4:	aa1503e0 	mov	x0, x21
    28d8:	97ffffa2 	bl	2760 <transpose_matrix_TA>
/home/avees/tee/darknetz/ta/parser_TA.c:101
    28dc:	aa1303e0 	mov	x0, x19
/home/avees/tee/darknetz/ta/parser_TA.c:102
    28e0:	a94153f3 	ldp	x19, x20, [sp, #16]
    28e4:	a9425bf5 	ldp	x21, x22, [sp, #32]
    28e8:	a94363f7 	ldp	x23, x24, [sp, #48]
    28ec:	a9446bf9 	ldp	x25, x26, [sp, #64]
    28f0:	a94573fb 	ldp	x27, x28, [sp, #80]
    28f4:	a8c77bfd 	ldp	x29, x30, [sp], #112
/home/avees/tee/darknetz/ta/parser_TA.c:101
    28f8:	1400142e 	b	79b0 <free>
/home/avees/tee/darknetz/ta/parser_TA.c:76
    28fc:	7101de9f 	cmp	w20, #0x77
    2900:	54000081 	b.ne	2910 <load_weights_TA+0x10c>  // b.any
/home/avees/tee/darknetz/ta/parser_TA.c:77
    2904:	aa1503e3 	mov	x3, x21
    2908:	52800024 	mov	w4, #0x1                   	// #1
    290c:	17ffffe5 	b	28a0 <load_weights_TA+0x9c>
/home/avees/tee/darknetz/ta/parser_TA.c:79
    2910:	7101ce9f 	cmp	w20, #0x73
    2914:	54000081 	b.ne	2924 <load_weights_TA+0x120>  // b.any
/home/avees/tee/darknetz/ta/parser_TA.c:80
    2918:	52800024 	mov	w4, #0x1                   	// #1
    291c:	f9411403 	ldr	x3, [x0, #552]
    2920:	17ffffe0 	b	28a0 <load_weights_TA+0x9c>
/home/avees/tee/darknetz/ta/parser_TA.c:82
    2924:	7101b69f 	cmp	w20, #0x6d
    2928:	54000081 	b.ne	2938 <load_weights_TA+0x134>  // b.any
/home/avees/tee/darknetz/ta/parser_TA.c:83
    292c:	52800024 	mov	w4, #0x1                   	// #1
    2930:	f9414c03 	ldr	x3, [x0, #664]
    2934:	17ffffdb 	b	28a0 <load_weights_TA+0x9c>
/home/avees/tee/darknetz/ta/parser_TA.c:85
    2938:	7101da9f 	cmp	w20, #0x76
    293c:	54fffba1 	b.ne	28b0 <load_weights_TA+0xac>  // b.any
/home/avees/tee/darknetz/ta/parser_TA.c:86
    2940:	52800024 	mov	w4, #0x1                   	// #1
    2944:	f9415003 	ldr	x3, [x0, #672]
    2948:	17ffffd6 	b	28a0 <load_weights_TA+0x9c>
/home/avees/tee/darknetz/ta/parser_TA.c:95
    294c:	71000aff 	cmp	w23, #0x2
    2950:	54fffc61 	b.ne	28dc <load_weights_TA+0xd8>  // b.any
/home/avees/tee/darknetz/ta/parser_TA.c:96
    2954:	b9406fe0 	ldr	w0, [sp, #108]
    2958:	7101de9f 	cmp	w20, #0x77
    295c:	7a400804 	ccmp	w0, #0x0, #0x4, eq  // eq = none
    2960:	54fffbe0 	b.eq	28dc <load_weights_TA+0xd8>  // b.none
/home/avees/tee/darknetz/ta/parser_TA.c:97
    2964:	2a1a03e2 	mov	w2, w26
    2968:	2a1903e1 	mov	w1, w25
    296c:	17ffffda 	b	28d4 <load_weights_TA+0xd0>

0000000000002970 <save_weights_TA>:
save_weights_TA():
/home/avees/tee/darknetz/ta/parser_TA.c:105
    2970:	a9be7bfd 	stp	x29, x30, [sp, #-32]!
    2974:	12001c63 	and	w3, w3, #0xff
/home/avees/tee/darknetz/ta/parser_TA.c:108
    2978:	7101887f 	cmp	w3, #0x62
/home/avees/tee/darknetz/ta/parser_TA.c:105
    297c:	910003fd 	mov	x29, sp
    2980:	a90153f3 	stp	x19, x20, [sp, #16]
    2984:	aa0003f3 	mov	x19, x0
/home/avees/tee/darknetz/ta/parser_TA.c:106
    2988:	f00000e0 	adrp	x0, 21000 <_DYNAMIC>
/home/avees/tee/darknetz/ta/parser_TA.c:105
    298c:	2a0103f4 	mov	w20, w1
/home/avees/tee/darknetz/ta/parser_TA.c:106
    2990:	52809101 	mov	w1, #0x488                 	// #1160
    2994:	f9410c00 	ldr	x0, [x0, #536]
    2998:	f9401000 	ldr	x0, [x0, #32]
    299c:	9b210040 	smaddl	x0, w2, w1, x0
/home/avees/tee/darknetz/ta/parser_TA.c:108
    29a0:	540001c1 	b.ne	29d8 <save_weights_TA+0x68>  // b.any
/home/avees/tee/darknetz/ta/parser_TA.c:109
    29a4:	f9410c01 	ldr	x1, [x0, #536]
    29a8:	52800024 	mov	w4, #0x1                   	// #1
    29ac:	aa1303e3 	mov	x3, x19
    29b0:	2a0403e2 	mov	w2, w4
/home/avees/tee/darknetz/ta/parser_TA.c:121
    29b4:	2a1403e0 	mov	w0, w20
    29b8:	94000210 	bl	31f8 <copy_cpu_TA>
/home/avees/tee/darknetz/ta/parser_TA.c:125
    29bc:	2a1403e2 	mov	w2, w20
    29c0:	aa1303e1 	mov	x1, x19
/home/avees/tee/darknetz/ta/parser_TA.c:126
    29c4:	a94153f3 	ldp	x19, x20, [sp, #16]
/home/avees/tee/darknetz/ta/parser_TA.c:125
    29c8:	b00000e0 	adrp	x0, 1f000 <base64_table+0x24>
/home/avees/tee/darknetz/ta/parser_TA.c:126
    29cc:	a8c27bfd 	ldp	x29, x30, [sp], #32
/home/avees/tee/darknetz/ta/parser_TA.c:125
    29d0:	91121400 	add	x0, x0, #0x485
    29d4:	17fffed9 	b	2538 <aes_cbc_TA>
/home/avees/tee/darknetz/ta/parser_TA.c:111
    29d8:	7101dc7f 	cmp	w3, #0x77
    29dc:	540000c1 	b.ne	29f4 <save_weights_TA+0x84>  // b.any
/home/avees/tee/darknetz/ta/parser_TA.c:112
    29e0:	52800024 	mov	w4, #0x1                   	// #1
    29e4:	aa1303e3 	mov	x3, x19
    29e8:	2a0403e2 	mov	w2, w4
    29ec:	f9411c01 	ldr	x1, [x0, #568]
    29f0:	17fffff1 	b	29b4 <save_weights_TA+0x44>
/home/avees/tee/darknetz/ta/parser_TA.c:114
    29f4:	7101cc7f 	cmp	w3, #0x73
    29f8:	540000c1 	b.ne	2a10 <save_weights_TA+0xa0>  // b.any
/home/avees/tee/darknetz/ta/parser_TA.c:115
    29fc:	52800024 	mov	w4, #0x1                   	// #1
    2a00:	aa1303e3 	mov	x3, x19
    2a04:	2a0403e2 	mov	w2, w4
    2a08:	f9411401 	ldr	x1, [x0, #552]
    2a0c:	17ffffea 	b	29b4 <save_weights_TA+0x44>
/home/avees/tee/darknetz/ta/parser_TA.c:117
    2a10:	7101b47f 	cmp	w3, #0x6d
    2a14:	540000c1 	b.ne	2a2c <save_weights_TA+0xbc>  // b.any
/home/avees/tee/darknetz/ta/parser_TA.c:118
    2a18:	52800024 	mov	w4, #0x1                   	// #1
    2a1c:	aa1303e3 	mov	x3, x19
    2a20:	2a0403e2 	mov	w2, w4
    2a24:	f9414c01 	ldr	x1, [x0, #664]
    2a28:	17ffffe3 	b	29b4 <save_weights_TA+0x44>
/home/avees/tee/darknetz/ta/parser_TA.c:120
    2a2c:	7101d87f 	cmp	w3, #0x76
    2a30:	54fffc61 	b.ne	29bc <save_weights_TA+0x4c>  // b.any
/home/avees/tee/darknetz/ta/parser_TA.c:121
    2a34:	52800024 	mov	w4, #0x1                   	// #1
    2a38:	aa1303e3 	mov	x3, x19
    2a3c:	2a0403e2 	mov	w2, w4
    2a40:	f9415001 	ldr	x1, [x0, #672]
    2a44:	17ffffdc 	b	29b4 <save_weights_TA+0x44>

0000000000002a48 <get_activation_string_TA>:
get_activation_string_TA():
/home/avees/tee/darknetz/ta/activations_TA.c:9
    2a48:	7100341f 	cmp	w0, #0xd
    2a4c:	54000568 	b.hi	2af8 <get_activation_string_TA+0xb0>  // b.pmore
    2a50:	900000e1 	adrp	x1, 1e000 <__text_end+0x4534>
    2a54:	91394021 	add	x1, x1, #0xe50
    2a58:	38604820 	ldrb	w0, [x1, w0, uxtw]
    2a5c:	10000061 	adr	x1, 2a68 <get_activation_string_TA+0x20>
    2a60:	8b208820 	add	x0, x1, w0, sxtb #2
    2a64:	d61f0000 	br	x0
/home/avees/tee/darknetz/ta/activations_TA.c:37
    2a68:	b00000e0 	adrp	x0, 1f000 <base64_table+0x24>
    2a6c:	9113a400 	add	x0, x0, #0x4e9
/home/avees/tee/darknetz/ta/activations_TA.c:42
    2a70:	d65f03c0 	ret
/home/avees/tee/darknetz/ta/activations_TA.c:17
    2a74:	b00000e0 	adrp	x0, 1f000 <base64_table+0x24>
    2a78:	91128400 	add	x0, x0, #0x4a1
    2a7c:	17fffffd 	b	2a70 <get_activation_string_TA+0x28>
/home/avees/tee/darknetz/ta/activations_TA.c:19
    2a80:	b00000e0 	adrp	x0, 1f000 <base64_table+0x24>
    2a84:	9112b800 	add	x0, x0, #0x4ae
    2a88:	17fffffa 	b	2a70 <get_activation_string_TA+0x28>
/home/avees/tee/darknetz/ta/activations_TA.c:21
    2a8c:	b00000e0 	adrp	x0, 1f000 <base64_table+0x24>
    2a90:	9112cc00 	add	x0, x0, #0x4b3
    2a94:	17fffff7 	b	2a70 <get_activation_string_TA+0x28>
/home/avees/tee/darknetz/ta/activations_TA.c:23
    2a98:	b00000e0 	adrp	x0, 1f000 <base64_table+0x24>
    2a9c:	9112e400 	add	x0, x0, #0x4b9
    2aa0:	17fffff4 	b	2a70 <get_activation_string_TA+0x28>
/home/avees/tee/darknetz/ta/activations_TA.c:25
    2aa4:	b00000e0 	adrp	x0, 1f000 <base64_table+0x24>
    2aa8:	9112f800 	add	x0, x0, #0x4be
    2aac:	17fffff1 	b	2a70 <get_activation_string_TA+0x28>
/home/avees/tee/darknetz/ta/activations_TA.c:27
    2ab0:	b00000e0 	adrp	x0, 1f000 <base64_table+0x24>
    2ab4:	91131400 	add	x0, x0, #0x4c5
    2ab8:	17ffffee 	b	2a70 <get_activation_string_TA+0x28>
/home/avees/tee/darknetz/ta/activations_TA.c:29
    2abc:	b00000e0 	adrp	x0, 1f000 <base64_table+0x24>
    2ac0:	91132800 	add	x0, x0, #0x4ca
    2ac4:	17ffffeb 	b	2a70 <get_activation_string_TA+0x28>
/home/avees/tee/darknetz/ta/activations_TA.c:31
    2ac8:	b00000e0 	adrp	x0, 1f000 <base64_table+0x24>
    2acc:	91133c00 	add	x0, x0, #0x4cf
    2ad0:	17ffffe8 	b	2a70 <get_activation_string_TA+0x28>
/home/avees/tee/darknetz/ta/activations_TA.c:33
    2ad4:	b00000e0 	adrp	x0, 1f000 <base64_table+0x24>
    2ad8:	91135400 	add	x0, x0, #0x4d5
    2adc:	17ffffe5 	b	2a70 <get_activation_string_TA+0x28>
/home/avees/tee/darknetz/ta/activations_TA.c:35
    2ae0:	b00000e0 	adrp	x0, 1f000 <base64_table+0x24>
    2ae4:	91136c00 	add	x0, x0, #0x4db
    2ae8:	17ffffe2 	b	2a70 <get_activation_string_TA+0x28>
/home/avees/tee/darknetz/ta/activations_TA.c:37
    2aec:	b00000e0 	adrp	x0, 1f000 <base64_table+0x24>
    2af0:	91138c00 	add	x0, x0, #0x4e3
    2af4:	17ffffdf 	b	2a70 <get_activation_string_TA+0x28>
/home/avees/tee/darknetz/ta/activations_TA.c:41
    2af8:	b00000e0 	adrp	x0, 1f000 <base64_table+0x24>
    2afc:	91128000 	add	x0, x0, #0x4a0
    2b00:	17ffffdc 	b	2a70 <get_activation_string_TA+0x28>
/home/avees/tee/darknetz/ta/activations_TA.c:11
    2b04:	b00000e0 	adrp	x0, 1f000 <base64_table+0x24>
    2b08:	91129400 	add	x0, x0, #0x4a5
    2b0c:	17ffffd9 	b	2a70 <get_activation_string_TA+0x28>

0000000000002b10 <get_activation_TA>:
get_activation_TA():
/home/avees/tee/darknetz/ta/activations_TA.c:45
    2b10:	a9be7bfd 	stp	x29, x30, [sp, #-32]!
/home/avees/tee/darknetz/ta/activations_TA.c:46
    2b14:	b00000e1 	adrp	x1, 1f000 <base64_table+0x24>
    2b18:	91129421 	add	x1, x1, #0x4a5
/home/avees/tee/darknetz/ta/activations_TA.c:45
    2b1c:	910003fd 	mov	x29, sp
    2b20:	f9000bf3 	str	x19, [sp, #16]
    2b24:	aa0003f3 	mov	x19, x0
/home/avees/tee/darknetz/ta/activations_TA.c:46
    2b28:	94001491 	bl	7d6c <strcmp>
    2b2c:	340008e0 	cbz	w0, 2c48 <get_activation_TA+0x138>
/home/avees/tee/darknetz/ta/activations_TA.c:47
    2b30:	b00000e1 	adrp	x1, 1f000 <base64_table+0x24>
    2b34:	aa1303e0 	mov	x0, x19
    2b38:	9113a421 	add	x1, x1, #0x4e9
    2b3c:	9400148c 	bl	7d6c <strcmp>
    2b40:	34000880 	cbz	w0, 2c50 <get_activation_TA+0x140>
/home/avees/tee/darknetz/ta/activations_TA.c:48
    2b44:	b00000e1 	adrp	x1, 1f000 <base64_table+0x24>
    2b48:	aa1303e0 	mov	x0, x19
    2b4c:	91128021 	add	x1, x1, #0x4a0
    2b50:	94001487 	bl	7d6c <strcmp>
    2b54:	34000820 	cbz	w0, 2c58 <get_activation_TA+0x148>
/home/avees/tee/darknetz/ta/activations_TA.c:49
    2b58:	b00000e1 	adrp	x1, 1f000 <base64_table+0x24>
    2b5c:	aa1303e0 	mov	x0, x19
    2b60:	91128421 	add	x1, x1, #0x4a1
    2b64:	94001482 	bl	7d6c <strcmp>
    2b68:	340007c0 	cbz	w0, 2c60 <get_activation_TA+0x150>
/home/avees/tee/darknetz/ta/activations_TA.c:50
    2b6c:	b00000e1 	adrp	x1, 1f000 <base64_table+0x24>
    2b70:	aa1303e0 	mov	x0, x19
    2b74:	9112b821 	add	x1, x1, #0x4ae
    2b78:	9400147d 	bl	7d6c <strcmp>
    2b7c:	34000760 	cbz	w0, 2c68 <get_activation_TA+0x158>
/home/avees/tee/darknetz/ta/activations_TA.c:51
    2b80:	b00000e1 	adrp	x1, 1f000 <base64_table+0x24>
    2b84:	aa1303e0 	mov	x0, x19
    2b88:	9112cc21 	add	x1, x1, #0x4b3
    2b8c:	94001478 	bl	7d6c <strcmp>
    2b90:	34000700 	cbz	w0, 2c70 <get_activation_TA+0x160>
/home/avees/tee/darknetz/ta/activations_TA.c:52
    2b94:	b00000e1 	adrp	x1, 1f000 <base64_table+0x24>
    2b98:	aa1303e0 	mov	x0, x19
    2b9c:	91132821 	add	x1, x1, #0x4ca
    2ba0:	94001473 	bl	7d6c <strcmp>
    2ba4:	340006a0 	cbz	w0, 2c78 <get_activation_TA+0x168>
/home/avees/tee/darknetz/ta/activations_TA.c:53
    2ba8:	b00000e1 	adrp	x1, 1f000 <base64_table+0x24>
    2bac:	aa1303e0 	mov	x0, x19
    2bb0:	91136c21 	add	x1, x1, #0x4db
    2bb4:	9400146e 	bl	7d6c <strcmp>
    2bb8:	34000640 	cbz	w0, 2c80 <get_activation_TA+0x170>
/home/avees/tee/darknetz/ta/activations_TA.c:54
    2bbc:	b00000e1 	adrp	x1, 1f000 <base64_table+0x24>
    2bc0:	aa1303e0 	mov	x0, x19
    2bc4:	91138c21 	add	x1, x1, #0x4e3
    2bc8:	94001469 	bl	7d6c <strcmp>
    2bcc:	340005e0 	cbz	w0, 2c88 <get_activation_TA+0x178>
/home/avees/tee/darknetz/ta/activations_TA.c:55
    2bd0:	b00000e1 	adrp	x1, 1f000 <base64_table+0x24>
    2bd4:	aa1303e0 	mov	x0, x19
    2bd8:	9112f821 	add	x1, x1, #0x4be
    2bdc:	94001464 	bl	7d6c <strcmp>
    2be0:	34000580 	cbz	w0, 2c90 <get_activation_TA+0x180>
/home/avees/tee/darknetz/ta/activations_TA.c:56
    2be4:	b00000e1 	adrp	x1, 1f000 <base64_table+0x24>
    2be8:	aa1303e0 	mov	x0, x19
    2bec:	9112e421 	add	x1, x1, #0x4b9
    2bf0:	9400145f 	bl	7d6c <strcmp>
    2bf4:	34000520 	cbz	w0, 2c98 <get_activation_TA+0x188>
/home/avees/tee/darknetz/ta/activations_TA.c:57
    2bf8:	b00000e1 	adrp	x1, 1f000 <base64_table+0x24>
    2bfc:	aa1303e0 	mov	x0, x19
    2c00:	91133c21 	add	x1, x1, #0x4cf
    2c04:	9400145a 	bl	7d6c <strcmp>
    2c08:	340004c0 	cbz	w0, 2ca0 <get_activation_TA+0x190>
/home/avees/tee/darknetz/ta/activations_TA.c:58
    2c0c:	b00000e1 	adrp	x1, 1f000 <base64_table+0x24>
    2c10:	aa1303e0 	mov	x0, x19
    2c14:	91131421 	add	x1, x1, #0x4c5
    2c18:	94001455 	bl	7d6c <strcmp>
    2c1c:	34000460 	cbz	w0, 2ca8 <get_activation_TA+0x198>
/home/avees/tee/darknetz/ta/activations_TA.c:59
    2c20:	aa1303e0 	mov	x0, x19
    2c24:	b00000e1 	adrp	x1, 1f000 <base64_table+0x24>
    2c28:	91135421 	add	x1, x1, #0x4d5
    2c2c:	94001450 	bl	7d6c <strcmp>
    2c30:	7100001f 	cmp	w0, #0x0
    2c34:	52800140 	mov	w0, #0xa                   	// #10
    2c38:	1a9f0400 	csinc	w0, w0, wzr, eq  // eq = none
/home/avees/tee/darknetz/ta/activations_TA.c:62
    2c3c:	f9400bf3 	ldr	x19, [sp, #16]
    2c40:	a8c27bfd 	ldp	x29, x30, [sp], #32
    2c44:	d65f03c0 	ret
/home/avees/tee/darknetz/ta/activations_TA.c:46
    2c48:	52800000 	mov	w0, #0x0                   	// #0
    2c4c:	17fffffc 	b	2c3c <get_activation_TA+0x12c>
/home/avees/tee/darknetz/ta/activations_TA.c:47
    2c50:	52800120 	mov	w0, #0x9                   	// #9
    2c54:	17fffffa 	b	2c3c <get_activation_TA+0x12c>
/home/avees/tee/darknetz/ta/activations_TA.c:48
    2c58:	52800020 	mov	w0, #0x1                   	// #1
    2c5c:	17fffff8 	b	2c3c <get_activation_TA+0x12c>
/home/avees/tee/darknetz/ta/activations_TA.c:49
    2c60:	52800100 	mov	w0, #0x8                   	// #8
    2c64:	17fffff6 	b	2c3c <get_activation_TA+0x12c>
/home/avees/tee/darknetz/ta/activations_TA.c:50
    2c68:	528001a0 	mov	w0, #0xd                   	// #13
    2c6c:	17fffff4 	b	2c3c <get_activation_TA+0x12c>
/home/avees/tee/darknetz/ta/activations_TA.c:51
    2c70:	52800040 	mov	w0, #0x2                   	// #2
    2c74:	17fffff2 	b	2c3c <get_activation_TA+0x12c>
/home/avees/tee/darknetz/ta/activations_TA.c:52
    2c78:	528000c0 	mov	w0, #0x6                   	// #6
    2c7c:	17fffff0 	b	2c3c <get_activation_TA+0x12c>
/home/avees/tee/darknetz/ta/activations_TA.c:53
    2c80:	52800160 	mov	w0, #0xb                   	// #11
    2c84:	17ffffee 	b	2c3c <get_activation_TA+0x12c>
/home/avees/tee/darknetz/ta/activations_TA.c:54
    2c88:	52800180 	mov	w0, #0xc                   	// #12
    2c8c:	17ffffec 	b	2c3c <get_activation_TA+0x12c>
/home/avees/tee/darknetz/ta/activations_TA.c:55
    2c90:	52800060 	mov	w0, #0x3                   	// #3
    2c94:	17ffffea 	b	2c3c <get_activation_TA+0x12c>
/home/avees/tee/darknetz/ta/activations_TA.c:56
    2c98:	52800080 	mov	w0, #0x4                   	// #4
    2c9c:	17ffffe8 	b	2c3c <get_activation_TA+0x12c>
/home/avees/tee/darknetz/ta/activations_TA.c:57
    2ca0:	528000e0 	mov	w0, #0x7                   	// #7
    2ca4:	17ffffe6 	b	2c3c <get_activation_TA+0x12c>
/home/avees/tee/darknetz/ta/activations_TA.c:58
    2ca8:	528000a0 	mov	w0, #0x5                   	// #5
    2cac:	17ffffe4 	b	2c3c <get_activation_TA+0x12c>

0000000000002cb0 <activate_TA>:
activate_TA():
/home/avees/tee/darknetz/ta/activations_TA.c:67
    2cb0:	a9bc7bfd 	stp	x29, x30, [sp, #-64]!
    2cb4:	7100341f 	cmp	w0, #0xd
    2cb8:	910003fd 	mov	x29, sp
    2cbc:	6d0127e8 	stp	d8, d9, [sp, #16]
    2cc0:	6d022fea 	stp	d10, d11, [sp, #32]
    2cc4:	fd001bec 	str	d12, [sp, #48]
    2cc8:	54000108 	b.hi	2ce8 <activate_TA+0x38>  // b.pmore
    2ccc:	900000e1 	adrp	x1, 1e000 <__text_end+0x4534>
    2cd0:	1e204008 	fmov	s8, s0
    2cd4:	91398021 	add	x1, x1, #0xe60
    2cd8:	78605820 	ldrh	w0, [x1, w0, uxtw #1]
    2cdc:	10000061 	adr	x1, 2ce8 <activate_TA+0x38>
    2ce0:	8b20a820 	add	x0, x1, w0, sxth #2
    2ce4:	d61f0000 	br	x0
ramp_activate_TA():
/home/avees/tee/darknetz/ta/./include/activations_TA.h:39
    2ce8:	0f000408 	movi	v8.2s, #0x0
activate_TA():
/home/avees/tee/darknetz/ta/activations_TA.c:99
    2cec:	1e204100 	fmov	s0, s8
    2cf0:	fd401bec 	ldr	d12, [sp, #48]
    2cf4:	6d4127e8 	ldp	d8, d9, [sp, #16]
    2cf8:	6d422fea 	ldp	d10, d11, [sp, #32]
    2cfc:	a8c47bfd 	ldp	x29, x30, [sp], #64
    2d00:	d65f03c0 	ret
logistic_activate_TA():
/home/avees/tee/darknetz/ta/./include/activations_TA.h:33
    2d04:	1e214000 	fneg	s0, s0
    2d08:	1e22c000 	fcvt	d0, s0
    2d0c:	97fffbf3 	bl	1cd8 <ta_exp>
    2d10:	1e6e1008 	fmov	d8, #1.000000000000000000e+00
    2d14:	1e682800 	fadd	d0, d0, d8
    2d18:	1e601908 	fdiv	d8, d8, d0
loggy_activate_TA():
/home/avees/tee/darknetz/ta/./include/activations_TA.h:34
    2d1c:	1e624108 	fcvt	s8, d8
activate_TA():
/home/avees/tee/darknetz/ta/activations_TA.c:74
    2d20:	17fffff3 	b	2cec <activate_TA+0x3c>
loggy_activate_TA():
/home/avees/tee/darknetz/ta/./include/activations_TA.h:34
    2d24:	1e214000 	fneg	s0, s0
    2d28:	1e22c000 	fcvt	d0, s0
    2d2c:	97fffbeb 	bl	1cd8 <ta_exp>
    2d30:	1e6e1001 	fmov	d1, #1.000000000000000000e+00
    2d34:	1e601008 	fmov	d8, #2.000000000000000000e+00
    2d38:	1e612800 	fadd	d0, d0, d1
    2d3c:	1e601908 	fdiv	d8, d8, d0
    2d40:	1e613908 	fsub	d8, d8, d1
    2d44:	17fffff6 	b	2d1c <activate_TA+0x6c>
relu_activate_TA():
/home/avees/tee/darknetz/ta/./include/activations_TA.h:35
    2d48:	1e202018 	fcmpe	s0, #0.0
    2d4c:	0f000401 	movi	v1.2s, #0x0
    2d50:	1e2e1000 	fmov	s0, #1.000000000000000000e+00
    2d54:	1e21cc00 	fcsel	s0, s0, s1, gt
    2d58:	1e200908 	fmul	s8, s8, s0
activate_TA():
/home/avees/tee/darknetz/ta/activations_TA.c:76
    2d5c:	17ffffe4 	b	2cec <activate_TA+0x3c>
elu_activate_TA():
/home/avees/tee/darknetz/ta/./include/activations_TA.h:36
    2d60:	1e202018 	fcmpe	s0, #0.0
    2d64:	0f000400 	movi	v0.2s, #0x0
    2d68:	1e2e1009 	fmov	s9, #1.000000000000000000e+00
    2d6c:	2f00e40a 	movi	d10, #0x0
    2d70:	1e6e100b 	fmov	d11, #1.000000000000000000e+00
    2d74:	1e20ad29 	fcsel	s9, s9, s0, ge  // ge = tcont
    2d78:	1e22c100 	fcvt	d0, s8
    2d7c:	1e6a4d6a 	fcsel	d10, d11, d10, mi  // mi = first
    2d80:	1e290909 	fmul	s9, s8, s9
    2d84:	1e22c129 	fcvt	d9, s9
    2d88:	97fffbd4 	bl	1cd8 <ta_exp>
    2d8c:	1e6b3808 	fsub	d8, d0, d11
    2d90:	1f4a2508 	fmadd	d8, d8, d10, d9
    2d94:	17ffffe2 	b	2d1c <activate_TA+0x6c>
selu_activate_TA():
/home/avees/tee/darknetz/ta/./include/activations_TA.h:37
    2d98:	2f00e401 	movi	d1, #0x0
    2d9c:	1e202018 	fcmpe	s0, #0.0
    2da0:	1e6e100b 	fmov	d11, #1.000000000000000000e+00
    2da4:	900000e0 	adrp	x0, 1e000 <__text_end+0x4534>
    2da8:	1e22c000 	fcvt	d0, s0
    2dac:	fd468c0c 	ldr	d12, [x0, #3352]
    2db0:	1e61ad6a 	fcsel	d10, d11, d1, ge  // ge = tcont
    2db4:	1e614d69 	fcsel	d9, d11, d1, mi  // mi = first
    2db8:	1e6c094a 	fmul	d10, d10, d12
    2dbc:	1e60094a 	fmul	d10, d10, d0
    2dc0:	97fffbc6 	bl	1cd8 <ta_exp>
    2dc4:	1e6c0921 	fmul	d1, d9, d12
    2dc8:	900000e0 	adrp	x0, 1e000 <__text_end+0x4534>
    2dcc:	fd469008 	ldr	d8, [x0, #3360]
    2dd0:	1e680821 	fmul	d1, d1, d8
    2dd4:	1e6b3808 	fsub	d8, d0, d11
    2dd8:	1f482828 	fmadd	d8, d1, d8, d10
    2ddc:	17ffffd0 	b	2d1c <activate_TA+0x6c>
relie_activate_TA():
/home/avees/tee/darknetz/ta/./include/activations_TA.h:38
    2de0:	1e202018 	fcmpe	s0, #0.0
    2de4:	54fff84c 	b.gt	2cec <activate_TA+0x3c>
plse_activate_TA():
/home/avees/tee/darknetz/ta/./include/activations_TA.h:44
    2de8:	900000e0 	adrp	x0, 1e000 <__text_end+0x4534>
    2dec:	1e22c108 	fcvt	d8, s8
    2df0:	fd469400 	ldr	d0, [x0, #3368]
    2df4:	14000011 	b	2e38 <activate_TA+0x188>
ramp_activate_TA():
/home/avees/tee/darknetz/ta/./include/activations_TA.h:39
    2df8:	1e202018 	fcmpe	s0, #0.0
    2dfc:	0f000401 	movi	v1.2s, #0x0
    2e00:	1e2e1000 	fmov	s0, #1.000000000000000000e+00
    2e04:	900000e0 	adrp	x0, 1e000 <__text_end+0x4534>
    2e08:	1e21cc00 	fcsel	s0, s0, s1, gt
    2e0c:	1e22c101 	fcvt	d1, s8
    2e10:	1e200908 	fmul	s8, s8, s0
    2e14:	fd469800 	ldr	d0, [x0, #3376]
    2e18:	1e22c108 	fcvt	d8, s8
    2e1c:	1f402028 	fmadd	d8, d1, d0, d8
    2e20:	17ffffbf 	b	2d1c <activate_TA+0x6c>
leaky_activate_TA():
/home/avees/tee/darknetz/ta/./include/activations_TA.h:40
    2e24:	1e202018 	fcmpe	s0, #0.0
    2e28:	54fff62c 	b.gt	2cec <activate_TA+0x3c>
    2e2c:	900000e0 	adrp	x0, 1e000 <__text_end+0x4534>
    2e30:	1e22c008 	fcvt	d8, s0
    2e34:	fd469800 	ldr	d0, [x0, #3376]
    2e38:	1e600908 	fmul	d8, d8, d0
    2e3c:	17ffffb8 	b	2d1c <activate_TA+0x6c>
tanh_activate_TA():
/home/avees/tee/darknetz/ta/./include/activations_TA.h:41
    2e40:	1e202808 	fadd	s8, s0, s0
    2e44:	1e22c108 	fcvt	d8, s8
    2e48:	1e604100 	fmov	d0, d8
    2e4c:	97fffba3 	bl	1cd8 <ta_exp>
    2e50:	1e604009 	fmov	d9, d0
    2e54:	1e604100 	fmov	d0, d8
    2e58:	97fffba0 	bl	1cd8 <ta_exp>
    2e5c:	1e6e1008 	fmov	d8, #1.000000000000000000e+00
    2e60:	1e683929 	fsub	d9, d9, d8
    2e64:	1e682808 	fadd	d8, d0, d8
    2e68:	1e681929 	fdiv	d9, d9, d8
    2e6c:	1e624128 	fcvt	s8, d9
activate_TA():
/home/avees/tee/darknetz/ta/activations_TA.c:88
    2e70:	17ffff9f 	b	2cec <activate_TA+0x3c>
plse_activate_TA():
/home/avees/tee/darknetz/ta/./include/activations_TA.h:44
    2e74:	1e321000 	fmov	s0, #-4.000000000000000000e+00
    2e78:	1e202110 	fcmpe	s8, s0
    2e7c:	1e221000 	fmov	s0, #4.000000000000000000e+00
    2e80:	54000065 	b.pl	2e8c <activate_TA+0x1dc>  // b.nfrst
    2e84:	1e202908 	fadd	s8, s8, s0
    2e88:	17ffffd8 	b	2de8 <activate_TA+0x138>
/home/avees/tee/darknetz/ta/./include/activations_TA.h:45
    2e8c:	1e202110 	fcmpe	s8, s0
    2e90:	5400010d 	b.le	2eb0 <activate_TA+0x200>
    2e94:	1e203908 	fsub	s8, s8, s0
    2e98:	900000e0 	adrp	x0, 1e000 <__text_end+0x4534>
    2e9c:	fd469401 	ldr	d1, [x0, #3368]
    2ea0:	1e22c108 	fcvt	d8, s8
lhtan_activate_TA():
/home/avees/tee/darknetz/ta/./include/activations_TA.h:52
    2ea4:	1e6e1000 	fmov	d0, #1.000000000000000000e+00
    2ea8:	1f410108 	fmadd	d8, d8, d1, d0
    2eac:	17ffff9c 	b	2d1c <activate_TA+0x6c>
plse_activate_TA():
/home/avees/tee/darknetz/ta/./include/activations_TA.h:46
    2eb0:	1e22c100 	fcvt	d0, s8
    2eb4:	1e681001 	fmov	d1, #1.250000000000000000e-01
    2eb8:	1e6c1008 	fmov	d8, #5.000000000000000000e-01
    2ebc:	1f412008 	fmadd	d8, d0, d1, d8
    2ec0:	17ffff97 	b	2d1c <activate_TA+0x6c>
stair_activate_TA():
/home/avees/tee/darknetz/ta/./include/activations_TA.h:22
    2ec4:	1e22c009 	fcvt	d9, s0
    2ec8:	1e604120 	fmov	d0, d9
    2ecc:	97fffbc0 	bl	1dcc <ta_floor>
/home/avees/tee/darknetz/ta/./include/activations_TA.h:23
    2ed0:	1e6c1000 	fmov	d0, #5.000000000000000000e-01
    2ed4:	370000a0 	tbnz	w0, #0, 2ee8 <activate_TA+0x238>
    2ed8:	1e600920 	fmul	d0, d9, d0
    2edc:	97fffbbc 	bl	1dcc <ta_floor>
    2ee0:	1e220008 	scvtf	s8, w0
    2ee4:	17ffff82 	b	2cec <activate_TA+0x3c>
/home/avees/tee/darknetz/ta/./include/activations_TA.h:24
    2ee8:	1e220001 	scvtf	s1, w0
    2eec:	1e600920 	fmul	d0, d9, d0
    2ef0:	1e213908 	fsub	s8, s8, s1
    2ef4:	97fffbb6 	bl	1dcc <ta_floor>
    2ef8:	1e220000 	scvtf	s0, w0
    2efc:	1e282808 	fadd	s8, s0, s8
    2f00:	17ffff7b 	b	2cec <activate_TA+0x3c>
hardtan_activate_TA():
/home/avees/tee/darknetz/ta/./include/activations_TA.h:28
    2f04:	1e3e1000 	fmov	s0, #-1.000000000000000000e+00
    2f08:	1e202110 	fcmpe	s8, s0
    2f0c:	54000264 	b.mi	2f58 <activate_TA+0x2a8>  // b.first
/home/avees/tee/darknetz/ta/./include/activations_TA.h:29
    2f10:	1e2e1000 	fmov	s0, #1.000000000000000000e+00
    2f14:	1e202100 	fcmp	s8, s0
    2f18:	1e20dd08 	fcsel	s8, s8, s0, le
    2f1c:	17ffff74 	b	2cec <activate_TA+0x3c>
lhtan_activate_TA():
/home/avees/tee/darknetz/ta/./include/activations_TA.h:51
    2f20:	1e202018 	fcmpe	s0, #0.0
    2f24:	540000a5 	b.pl	2f38 <activate_TA+0x288>  // b.nfrst
    2f28:	900000e0 	adrp	x0, 1e000 <__text_end+0x4534>
    2f2c:	1e22c008 	fcvt	d8, s0
    2f30:	fd466000 	ldr	d0, [x0, #3264]
    2f34:	17ffffc1 	b	2e38 <activate_TA+0x188>
/home/avees/tee/darknetz/ta/./include/activations_TA.h:52
    2f38:	1e2e1000 	fmov	s0, #1.000000000000000000e+00
    2f3c:	1e202110 	fcmpe	s8, s0
    2f40:	54ffed6d 	b.le	2cec <activate_TA+0x3c>
    2f44:	1e203908 	fsub	s8, s8, s0
    2f48:	900000e0 	adrp	x0, 1e000 <__text_end+0x4534>
    2f4c:	fd466001 	ldr	d1, [x0, #3264]
    2f50:	1e22c108 	fcvt	d8, s8
    2f54:	17ffffd4 	b	2ea4 <activate_TA+0x1f4>
hardtan_activate_TA():
/home/avees/tee/darknetz/ta/./include/activations_TA.h:28
    2f58:	1e204008 	fmov	s8, s0
    2f5c:	17ffff64 	b	2cec <activate_TA+0x3c>

0000000000002f60 <activate_array_TA>:
activate_array_TA():
/home/avees/tee/darknetz/ta/activations_TA.c:102
    2f60:	a9bd7bfd 	stp	x29, x30, [sp, #-48]!
    2f64:	910003fd 	mov	x29, sp
    2f68:	a90153f3 	stp	x19, x20, [sp, #16]
    2f6c:	aa0003f3 	mov	x19, x0
/home/avees/tee/darknetz/ta/activations_TA.c:104
    2f70:	d2800014 	mov	x20, #0x0                   	// #0
/home/avees/tee/darknetz/ta/activations_TA.c:102
    2f74:	a9025bf5 	stp	x21, x22, [sp, #32]
    2f78:	2a0103f5 	mov	w21, w1
    2f7c:	2a0203f6 	mov	w22, w2
/home/avees/tee/darknetz/ta/activations_TA.c:104 (discriminator 1)
    2f80:	6b1402bf 	cmp	w21, w20
    2f84:	540000cc 	b.gt	2f9c <activate_array_TA+0x3c>
/home/avees/tee/darknetz/ta/activations_TA.c:108
    2f88:	aa1303e0 	mov	x0, x19
    2f8c:	a94153f3 	ldp	x19, x20, [sp, #16]
    2f90:	a9425bf5 	ldp	x21, x22, [sp, #32]
    2f94:	a8c37bfd 	ldp	x29, x30, [sp], #48
    2f98:	d65f03c0 	ret
/home/avees/tee/darknetz/ta/activations_TA.c:105 (discriminator 3)
    2f9c:	bc747a60 	ldr	s0, [x19, x20, lsl #2]
    2fa0:	2a1603e0 	mov	w0, w22
    2fa4:	97ffff43 	bl	2cb0 <activate_TA>
    2fa8:	bc347a60 	str	s0, [x19, x20, lsl #2]
/home/avees/tee/darknetz/ta/activations_TA.c:104 (discriminator 3)
    2fac:	91000694 	add	x20, x20, #0x1
    2fb0:	17fffff4 	b	2f80 <activate_array_TA+0x20>

0000000000002fb4 <gradient_TA>:
gradient_TA():
/home/avees/tee/darknetz/ta/activations_TA.c:113
    2fb4:	7100341f 	cmp	w0, #0xd
    2fb8:	54000168 	b.hi	2fe4 <gradient_TA+0x30>  // b.pmore
/home/avees/tee/darknetz/ta/activations_TA.c:112
    2fbc:	a9be7bfd 	stp	x29, x30, [sp, #-32]!
    2fc0:	900000e1 	adrp	x1, 1e000 <__text_end+0x4534>
    2fc4:	9139f021 	add	x1, x1, #0xe7c
    2fc8:	910003fd 	mov	x29, sp
    2fcc:	fd000be8 	str	d8, [sp, #16]
    2fd0:	1e204008 	fmov	s8, s0
    2fd4:	38604820 	ldrb	w0, [x1, w0, uxtw]
    2fd8:	10000061 	adr	x1, 2fe4 <gradient_TA+0x30>
    2fdc:	8b208820 	add	x0, x1, w0, sxtb #2
    2fe0:	d61f0000 	br	x0
relu_gradient_TA():
/home/avees/tee/darknetz/ta/./include/activations_TA.h:80
    2fe4:	0f000400 	movi	v0.2s, #0x0
gradient_TA():
/home/avees/tee/darknetz/ta/activations_TA.c:144
    2fe8:	d65f03c0 	ret
logistic_gradient_TA():
/home/avees/tee/darknetz/ta/./include/activations_TA.h:69
    2fec:	1e2e1000 	fmov	s0, #1.000000000000000000e+00
    2ff0:	1e283800 	fsub	s0, s0, s8
loggy_gradient_TA():
/home/avees/tee/darknetz/ta/./include/activations_TA.h:73
    2ff4:	1e280800 	fmul	s0, s0, s8
gradient_TA():
/home/avees/tee/darknetz/ta/activations_TA.c:144
    2ff8:	fd400be8 	ldr	d8, [sp, #16]
    2ffc:	a8c27bfd 	ldp	x29, x30, [sp], #32
    3000:	d65f03c0 	ret
loggy_gradient_TA():
/home/avees/tee/darknetz/ta/./include/activations_TA.h:72
    3004:	1e22c000 	fcvt	d0, s0
    3008:	1e6e1008 	fmov	d8, #1.000000000000000000e+00
    300c:	1e682800 	fadd	d0, d0, d8
    3010:	1e6c1008 	fmov	d8, #5.000000000000000000e-01
    3014:	1e680800 	fmul	d0, d0, d8
    3018:	1e624008 	fcvt	s8, d0
/home/avees/tee/darknetz/ta/./include/activations_TA.h:73
    301c:	1e2e1000 	fmov	s0, #1.000000000000000000e+00
    3020:	1e283800 	fsub	s0, s0, s8
    3024:	1e202800 	fadd	s0, s0, s0
    3028:	17fffff3 	b	2ff4 <gradient_TA+0x40>
relu_gradient_TA():
/home/avees/tee/darknetz/ta/./include/activations_TA.h:80
    302c:	1e202018 	fcmpe	s0, #0.0
    3030:	540007ec 	b.gt	312c <gradient_TA+0x178>
    3034:	0f000400 	movi	v0.2s, #0x0
    3038:	17fffff0 	b	2ff8 <gradient_TA+0x44>
elu_gradient_TA():
/home/avees/tee/darknetz/ta/./include/activations_TA.h:81
    303c:	0f000401 	movi	v1.2s, #0x0
    3040:	1e2e1000 	fmov	s0, #1.000000000000000000e+00
    3044:	1e212110 	fcmpe	s8, s1
    3048:	1e21ac02 	fcsel	s2, s0, s1, ge  // ge = tcont
    304c:	1e202118 	fcmpe	s8, #0.0
    3050:	1e202908 	fadd	s8, s8, s0
    3054:	1e214c01 	fcsel	s1, s0, s1, mi  // mi = first
    3058:	1f010900 	fmadd	s0, s8, s1, s2
gradient_TA():
/home/avees/tee/darknetz/ta/activations_TA.c:123
    305c:	17ffffe7 	b	2ff8 <gradient_TA+0x44>
selu_gradient_TA():
/home/avees/tee/darknetz/ta/./include/activations_TA.h:82
    3060:	2f00e402 	movi	d2, #0x0
    3064:	1e202018 	fcmpe	s0, #0.0
    3068:	f00000c0 	adrp	x0, 1e000 <__text_end+0x4534>
    306c:	1e6e1001 	fmov	d1, #1.000000000000000000e+00
    3070:	1e22c108 	fcvt	d8, s8
    3074:	fd468c03 	ldr	d3, [x0, #3352]
    3078:	f00000c0 	adrp	x0, 1e000 <__text_end+0x4534>
    307c:	1e62ac20 	fcsel	d0, d1, d2, ge  // ge = tcont
    3080:	1e624c21 	fcsel	d1, d1, d2, mi  // mi = first
    3084:	fd469c02 	ldr	d2, [x0, #3384]
    3088:	1e622908 	fadd	d8, d8, d2
    308c:	1e630800 	fmul	d0, d0, d3
    3090:	1f410108 	fmadd	d8, d8, d1, d0
ramp_gradient_TA():
/home/avees/tee/darknetz/ta/./include/activations_TA.h:84
    3094:	1e624100 	fcvt	s0, d8
gradient_TA():
/home/avees/tee/darknetz/ta/activations_TA.c:129
    3098:	17ffffd8 	b	2ff8 <gradient_TA+0x44>
relie_gradient_TA():
/home/avees/tee/darknetz/ta/./include/activations_TA.h:83
    309c:	1e202018 	fcmpe	s0, #0.0
    30a0:	5400046c 	b.gt	312c <gradient_TA+0x178>
    30a4:	f00000c0 	adrp	x0, 1e000 <__text_end+0x4534>
    30a8:	bd4e8c00 	ldr	s0, [x0, #3724]
    30ac:	17ffffd3 	b	2ff8 <gradient_TA+0x44>
ramp_gradient_TA():
/home/avees/tee/darknetz/ta/./include/activations_TA.h:84
    30b0:	1e202018 	fcmpe	s0, #0.0
    30b4:	2f00e408 	movi	d8, #0x0
    30b8:	1e6e1000 	fmov	d0, #1.000000000000000000e+00
    30bc:	f00000c0 	adrp	x0, 1e000 <__text_end+0x4534>
    30c0:	1e68cc00 	fcsel	d0, d0, d8, gt
    30c4:	fd469808 	ldr	d8, [x0, #3376]
    30c8:	1e682808 	fadd	d8, d0, d8
    30cc:	17fffff2 	b	3094 <gradient_TA+0xe0>
leaky_gradient_TA():
/home/avees/tee/darknetz/ta/./include/activations_TA.h:85
    30d0:	1e202018 	fcmpe	s0, #0.0
    30d4:	540002cc 	b.gt	312c <gradient_TA+0x178>
    30d8:	f00000c0 	adrp	x0, 1e000 <__text_end+0x4534>
    30dc:	bd4e9000 	ldr	s0, [x0, #3728]
    30e0:	17ffffc6 	b	2ff8 <gradient_TA+0x44>
tanh_gradient_TA():
/home/avees/tee/darknetz/ta/./include/activations_TA.h:86
    30e4:	1e2e1000 	fmov	s0, #1.000000000000000000e+00
    30e8:	1f088100 	fmsub	s0, s8, s8, s0
gradient_TA():
/home/avees/tee/darknetz/ta/activations_TA.c:133
    30ec:	17ffffc3 	b	2ff8 <gradient_TA+0x44>
plse_gradient_TA():
/home/avees/tee/darknetz/ta/./include/activations_TA.h:87
    30f0:	1e202018 	fcmpe	s0, #0.0
    30f4:	54fffd84 	b.mi	30a4 <gradient_TA+0xf0>  // b.first
    30f8:	1e2e1001 	fmov	s1, #1.000000000000000000e+00
    30fc:	529ae140 	mov	w0, #0xd70a                	// #55050
    3100:	72a78460 	movk	w0, #0x3c23, lsl #16
    3104:	1e270000 	fmov	s0, w0
    3108:	1e212110 	fcmpe	s8, s1
    310c:	1e281008 	fmov	s8, #1.250000000000000000e-01
    3110:	1e28cc00 	fcsel	s0, s0, s8, gt
    3114:	17ffffb9 	b	2ff8 <gradient_TA+0x44>
stair_gradient_TA():
/home/avees/tee/darknetz/ta/./include/activations_TA.h:77
    3118:	1e22c000 	fcvt	d0, s0
    311c:	97fffb2c 	bl	1dcc <ta_floor>
    3120:	1e220000 	scvtf	s0, w0
    3124:	1e202100 	fcmp	s8, s0
    3128:	54fff860 	b.eq	3034 <gradient_TA+0x80>  // b.none
gradient_TA():
/home/avees/tee/darknetz/ta/activations_TA.c:115
    312c:	1e2e1000 	fmov	s0, #1.000000000000000000e+00
    3130:	17ffffb2 	b	2ff8 <gradient_TA+0x44>
hardtan_gradient_TA():
/home/avees/tee/darknetz/ta/./include/activations_TA.h:65
    3134:	1e3e1000 	fmov	s0, #-1.000000000000000000e+00
    3138:	1e202110 	fcmpe	s8, s0
    313c:	54fff7cd 	b.le	3034 <gradient_TA+0x80>
    3140:	1e2e1000 	fmov	s0, #1.000000000000000000e+00
    3144:	1e202110 	fcmpe	s8, s0
    3148:	54fff765 	b.pl	3034 <gradient_TA+0x80>  // b.nfrst
    314c:	17fffff8 	b	312c <gradient_TA+0x178>
lhtan_gradient_TA():
/home/avees/tee/darknetz/ta/./include/activations_TA.h:59
    3150:	1e202018 	fcmpe	s0, #0.0
    3154:	5400008d 	b.le	3164 <gradient_TA+0x1b0>
    3158:	1e2e1000 	fmov	s0, #1.000000000000000000e+00
    315c:	1e202110 	fcmpe	s8, s0
    3160:	54fffe64 	b.mi	312c <gradient_TA+0x178>  // b.first
/home/avees/tee/darknetz/ta/./include/activations_TA.h:60
    3164:	f00000c0 	adrp	x0, 1e000 <__text_end+0x4534>
    3168:	bd4e9400 	ldr	s0, [x0, #3732]
    316c:	17ffffa3 	b	2ff8 <gradient_TA+0x44>

0000000000003170 <gradient_array_TA>:
gradient_array_TA():
/home/avees/tee/darknetz/ta/activations_TA.c:147
    3170:	a9bc7bfd 	stp	x29, x30, [sp, #-64]!
    3174:	910003fd 	mov	x29, sp
    3178:	a90153f3 	stp	x19, x20, [sp, #16]
    317c:	aa0303f4 	mov	x20, x3
/home/avees/tee/darknetz/ta/activations_TA.c:149
    3180:	d2800013 	mov	x19, #0x0                   	// #0
/home/avees/tee/darknetz/ta/activations_TA.c:147
    3184:	a9025bf5 	stp	x21, x22, [sp, #32]
    3188:	aa0003f6 	mov	x22, x0
    318c:	2a0103f5 	mov	w21, w1
    3190:	f9001bf7 	str	x23, [sp, #48]
    3194:	2a0203f7 	mov	w23, w2
/home/avees/tee/darknetz/ta/activations_TA.c:149 (discriminator 1)
    3198:	6b1302bf 	cmp	w21, w19
    319c:	540000ec 	b.gt	31b8 <gradient_array_TA+0x48>
/home/avees/tee/darknetz/ta/activations_TA.c:153
    31a0:	aa1403e0 	mov	x0, x20
    31a4:	a94153f3 	ldp	x19, x20, [sp, #16]
    31a8:	a9425bf5 	ldp	x21, x22, [sp, #32]
    31ac:	f9401bf7 	ldr	x23, [sp, #48]
    31b0:	a8c47bfd 	ldp	x29, x30, [sp], #64
    31b4:	d65f03c0 	ret
/home/avees/tee/darknetz/ta/activations_TA.c:150 (discriminator 3)
    31b8:	bc737ac0 	ldr	s0, [x22, x19, lsl #2]
    31bc:	2a1703e0 	mov	w0, w23
    31c0:	97ffff7d 	bl	2fb4 <gradient_TA>
    31c4:	bc737a81 	ldr	s1, [x20, x19, lsl #2]
    31c8:	1e200821 	fmul	s1, s1, s0
    31cc:	bc337a81 	str	s1, [x20, x19, lsl #2]
/home/avees/tee/darknetz/ta/activations_TA.c:149 (discriminator 3)
    31d0:	91000673 	add	x19, x19, #0x1
    31d4:	17fffff1 	b	3198 <gradient_array_TA+0x28>

00000000000031d8 <fill_cpu_TA>:
fill_cpu_TA():
/home/avees/tee/darknetz/ta/blas_TA.c:12
    31d8:	52800003 	mov	w3, #0x0                   	// #0
/home/avees/tee/darknetz/ta/blas_TA.c:12 (discriminator 1)
    31dc:	6b00007f 	cmp	w3, w0
    31e0:	5400004b 	b.lt	31e8 <fill_cpu_TA+0x10>  // b.tstop
/home/avees/tee/darknetz/ta/blas_TA.c:13
    31e4:	d65f03c0 	ret
/home/avees/tee/darknetz/ta/blas_TA.c:12 (discriminator 3)
    31e8:	11000463 	add	w3, w3, #0x1
    31ec:	bd000020 	str	s0, [x1]
    31f0:	8b22c821 	add	x1, x1, w2, sxtw #2
    31f4:	17fffffa 	b	31dc <fill_cpu_TA+0x4>

00000000000031f8 <copy_cpu_TA>:
copy_cpu_TA():
/home/avees/tee/darknetz/ta/blas_TA.c:18
    31f8:	52800005 	mov	w5, #0x0                   	// #0
/home/avees/tee/darknetz/ta/blas_TA.c:18 (discriminator 1)
    31fc:	6b0000bf 	cmp	w5, w0
    3200:	5400004b 	b.lt	3208 <copy_cpu_TA+0x10>  // b.tstop
/home/avees/tee/darknetz/ta/blas_TA.c:21
    3204:	d65f03c0 	ret
/home/avees/tee/darknetz/ta/blas_TA.c:19 (discriminator 3)
    3208:	bd400020 	ldr	s0, [x1]
/home/avees/tee/darknetz/ta/blas_TA.c:18 (discriminator 3)
    320c:	110004a5 	add	w5, w5, #0x1
    3210:	8b22c821 	add	x1, x1, w2, sxtw #2
/home/avees/tee/darknetz/ta/blas_TA.c:19 (discriminator 3)
    3214:	bd000060 	str	s0, [x3]
/home/avees/tee/darknetz/ta/blas_TA.c:18 (discriminator 3)
    3218:	8b24c863 	add	x3, x3, w4, sxtw #2
    321c:	17fffff8 	b	31fc <copy_cpu_TA+0x4>

0000000000003220 <mean_cpu_TA>:
mean_cpu_TA():
/home/avees/tee/darknetz/ta/blas_TA.c:25
    3220:	1b037c25 	mul	w5, w1, w3
    3224:	1e6e1000 	fmov	d0, #1.000000000000000000e+00
    3228:	1b037c4a 	mul	w10, w2, w3
/home/avees/tee/darknetz/ta/blas_TA.c:27
    322c:	52800007 	mov	w7, #0x0                   	// #0
/home/avees/tee/darknetz/ta/blas_TA.c:25
    3230:	1e6200a1 	scvtf	d1, w5
